ARM GAS  C:\Users\timol\AppData\Local\Temp\ccQ1g8Om.s 			page 1


   1              		.cpu cortex-m3
   2              		.arch armv7-m
   3              		.fpu softvfp
   4              		.eabi_attribute 20, 1
   5              		.eabi_attribute 21, 1
   6              		.eabi_attribute 23, 3
   7              		.eabi_attribute 24, 1
   8              		.eabi_attribute 25, 1
   9              		.eabi_attribute 26, 1
  10              		.eabi_attribute 30, 1
  11              		.eabi_attribute 34, 1
  12              		.eabi_attribute 18, 4
  13              		.file	"main.c"
  14              		.text
  15              	.Ltext0:
  16              		.cfi_sections	.debug_frame
  17              		.section	.text.MX_GPIO_Init,"ax",%progbits
  18              		.align	1
  19              		.syntax unified
  20              		.thumb
  21              		.thumb_func
  23              	MX_GPIO_Init:
  24              	.LFB73:
  25              		.file 1 "Core/Src/main.c"
   1:Core/Src/main.c **** /* USER CODE BEGIN Header */
   2:Core/Src/main.c **** /**
   3:Core/Src/main.c ****   ******************************************************************************
   4:Core/Src/main.c ****   * @file           : main.c
   5:Core/Src/main.c ****   * @brief          : Main program body
   6:Core/Src/main.c ****   ******************************************************************************
   7:Core/Src/main.c ****   * @attention
   8:Core/Src/main.c ****   *
   9:Core/Src/main.c ****   * <h2><center>&copy; Copyright (c) 2022 STMicroelectronics.
  10:Core/Src/main.c ****   * All rights reserved.</center></h2>
  11:Core/Src/main.c ****   *
  12:Core/Src/main.c ****   * This software component is licensed by ST under BSD 3-Clause license,
  13:Core/Src/main.c ****   * the "License"; You may not use this file except in compliance with the
  14:Core/Src/main.c ****   * License. You may obtain a copy of the License at:
  15:Core/Src/main.c ****   *                        opensource.org/licenses/BSD-3-Clause
  16:Core/Src/main.c ****   *
  17:Core/Src/main.c ****   ******************************************************************************
  18:Core/Src/main.c ****   */
  19:Core/Src/main.c **** /* USER CODE END Header */
  20:Core/Src/main.c **** /* Includes ------------------------------------------------------------------*/
  21:Core/Src/main.c **** #include "main.h"
  22:Core/Src/main.c **** 
  23:Core/Src/main.c **** /* Private includes ----------------------------------------------------------*/
  24:Core/Src/main.c **** /* USER CODE BEGIN Includes */
  25:Core/Src/main.c **** #include "MS5837.h"
  26:Core/Src/main.c **** #include <stdio.h>
  27:Core/Src/main.c **** #include <string.h>
  28:Core/Src/main.c **** #include <stdarg.h>
  29:Core/Src/main.c **** /* USER CODE END Includes */
  30:Core/Src/main.c **** 
  31:Core/Src/main.c **** /* Private typedef -----------------------------------------------------------*/
  32:Core/Src/main.c **** /* USER CODE BEGIN PTD */
  33:Core/Src/main.c **** 
ARM GAS  C:\Users\timol\AppData\Local\Temp\ccQ1g8Om.s 			page 2


  34:Core/Src/main.c **** /* USER CODE END PTD */
  35:Core/Src/main.c **** 
  36:Core/Src/main.c **** /* Private define ------------------------------------------------------------*/
  37:Core/Src/main.c **** /* USER CODE BEGIN PD */
  38:Core/Src/main.c **** /* USER CODE END PD */
  39:Core/Src/main.c **** 
  40:Core/Src/main.c **** /* Private macro -------------------------------------------------------------*/
  41:Core/Src/main.c **** /* USER CODE BEGIN PM */
  42:Core/Src/main.c **** 
  43:Core/Src/main.c **** /* USER CODE END PM */
  44:Core/Src/main.c **** 
  45:Core/Src/main.c **** /* Private variables ---------------------------------------------------------*/
  46:Core/Src/main.c **** I2C_HandleTypeDef hi2c1;
  47:Core/Src/main.c **** 
  48:Core/Src/main.c **** UART_HandleTypeDef huart2;
  49:Core/Src/main.c **** 
  50:Core/Src/main.c **** /* USER CODE BEGIN PV */
  51:Core/Src/main.c **** 
  52:Core/Src/main.c **** /* USER CODE END PV */
  53:Core/Src/main.c **** 
  54:Core/Src/main.c **** /* Private function prototypes -----------------------------------------------*/
  55:Core/Src/main.c **** void SystemClock_Config(void);
  56:Core/Src/main.c **** static void MX_GPIO_Init(void);
  57:Core/Src/main.c **** static void MX_USART2_UART_Init(void);
  58:Core/Src/main.c **** static void MX_I2C1_Init(void);
  59:Core/Src/main.c **** /* USER CODE BEGIN PFP */
  60:Core/Src/main.c **** void myprintf(const char *fmt, ...);
  61:Core/Src/main.c **** /* USER CODE END PFP */
  62:Core/Src/main.c **** 
  63:Core/Src/main.c **** /* Private user code ---------------------------------------------------------*/
  64:Core/Src/main.c **** /* USER CODE BEGIN 0 */
  65:Core/Src/main.c **** void myprintf(const char *fmt, ...) {
  66:Core/Src/main.c ****   static char buffer[256];
  67:Core/Src/main.c ****   va_list args;
  68:Core/Src/main.c ****   va_start(args, fmt);
  69:Core/Src/main.c ****   vsnprintf(buffer, sizeof(buffer), fmt, args);
  70:Core/Src/main.c ****   va_end(args);
  71:Core/Src/main.c **** 
  72:Core/Src/main.c ****   int len = strlen(buffer);
  73:Core/Src/main.c ****   HAL_UART_Transmit(&huart2, (uint8_t*)buffer, len, -1);
  74:Core/Src/main.c **** }
  75:Core/Src/main.c **** 
  76:Core/Src/main.c **** /* USER CODE END 0 */
  77:Core/Src/main.c **** 
  78:Core/Src/main.c **** /**
  79:Core/Src/main.c ****   * @brief  The application entry point.
  80:Core/Src/main.c ****   * @retval int
  81:Core/Src/main.c ****   */
  82:Core/Src/main.c **** int main(void)
  83:Core/Src/main.c **** {
  84:Core/Src/main.c ****   /* USER CODE BEGIN 1 */
  85:Core/Src/main.c ****   float altitude_float = 0;
  86:Core/Src/main.c ****   float depth_float = 0;
  87:Core/Src/main.c **** 
  88:Core/Src/main.c ****   /* USER CODE END 1 */
  89:Core/Src/main.c **** 
  90:Core/Src/main.c ****   /* MCU Configuration--------------------------------------------------------*/
ARM GAS  C:\Users\timol\AppData\Local\Temp\ccQ1g8Om.s 			page 3


  91:Core/Src/main.c **** 
  92:Core/Src/main.c ****   /* Reset of all peripherals, Initializes the Flash interface and the Systick. */
  93:Core/Src/main.c ****   HAL_Init();
  94:Core/Src/main.c **** 
  95:Core/Src/main.c ****   /* USER CODE BEGIN Init */
  96:Core/Src/main.c **** 
  97:Core/Src/main.c ****   /* USER CODE END Init */
  98:Core/Src/main.c **** 
  99:Core/Src/main.c ****   /* Configure the system clock */
 100:Core/Src/main.c ****   SystemClock_Config();
 101:Core/Src/main.c **** 
 102:Core/Src/main.c ****   /* USER CODE BEGIN SysInit */
 103:Core/Src/main.c **** 
 104:Core/Src/main.c ****   /* USER CODE END SysInit */
 105:Core/Src/main.c **** 
 106:Core/Src/main.c ****   /* Initialize all configured peripherals */
 107:Core/Src/main.c ****   MX_GPIO_Init();
 108:Core/Src/main.c ****   MX_USART2_UART_Init();
 109:Core/Src/main.c ****   MX_I2C1_Init();
 110:Core/Src/main.c ****   /* USER CODE BEGIN 2 */
 111:Core/Src/main.c **** 
 112:Core/Src/main.c ****   // checks if initialization worked
 113:Core/Src/main.c ****   while (!MS5837_init(&hi2c1)) {
 114:Core/Src/main.c ****     myprintf("Init failed!");
 115:Core/Src/main.c ****   }
 116:Core/Src/main.c ****   myprintf("Sensor initialized\n\r");
 117:Core/Src/main.c ****   /* USER CODE END 2 */
 118:Core/Src/main.c **** 
 119:Core/Src/main.c ****   /* Infinite loop */
 120:Core/Src/main.c ****   /* USER CODE BEGIN WHILE */
 121:Core/Src/main.c ****   while (1)
 122:Core/Src/main.c ****   {
 123:Core/Src/main.c ****     MS5837_read(&hi2c1);
 124:Core/Src/main.c ****     altitude_float = altitude();
 125:Core/Src/main.c ****     depth_float = depth();
 126:Core/Src/main.c **** 
 127:Core/Src/main.c ****     // if printing: Altitude: 44307, Depth: -10, then pressure is not being read (or is 0), probabl
 128:Core/Src/main.c ****     myprintf("Altitude: %d, Depth: %d\r\n", (int) altitude_float, (int) depth_float);
 129:Core/Src/main.c ****     /* USER CODE END WHILE */
 130:Core/Src/main.c ****     
 131:Core/Src/main.c ****     /* USER CODE BEGIN 3 */
 132:Core/Src/main.c ****   }
 133:Core/Src/main.c ****   /* USER CODE END 3 */
 134:Core/Src/main.c **** }
 135:Core/Src/main.c **** 
 136:Core/Src/main.c **** /**
 137:Core/Src/main.c ****   * @brief System Clock Configuration
 138:Core/Src/main.c ****   * @retval None
 139:Core/Src/main.c ****   */
 140:Core/Src/main.c **** void SystemClock_Config(void)
 141:Core/Src/main.c **** {
 142:Core/Src/main.c ****   RCC_OscInitTypeDef RCC_OscInitStruct = {0};
 143:Core/Src/main.c ****   RCC_ClkInitTypeDef RCC_ClkInitStruct = {0};
 144:Core/Src/main.c **** 
 145:Core/Src/main.c ****   /** Initializes the RCC Oscillators according to the specified parameters
 146:Core/Src/main.c ****   * in the RCC_OscInitTypeDef structure.
 147:Core/Src/main.c ****   */
ARM GAS  C:\Users\timol\AppData\Local\Temp\ccQ1g8Om.s 			page 4


 148:Core/Src/main.c ****   RCC_OscInitStruct.OscillatorType = RCC_OSCILLATORTYPE_HSI;
 149:Core/Src/main.c ****   RCC_OscInitStruct.HSIState = RCC_HSI_ON;
 150:Core/Src/main.c ****   RCC_OscInitStruct.HSICalibrationValue = RCC_HSICALIBRATION_DEFAULT;
 151:Core/Src/main.c ****   RCC_OscInitStruct.PLL.PLLState = RCC_PLL_ON;
 152:Core/Src/main.c ****   RCC_OscInitStruct.PLL.PLLSource = RCC_PLLSOURCE_HSI_DIV2;
 153:Core/Src/main.c ****   RCC_OscInitStruct.PLL.PLLMUL = RCC_PLL_MUL16;
 154:Core/Src/main.c ****   if (HAL_RCC_OscConfig(&RCC_OscInitStruct) != HAL_OK)
 155:Core/Src/main.c ****   {
 156:Core/Src/main.c ****     Error_Handler();
 157:Core/Src/main.c ****   }
 158:Core/Src/main.c **** 
 159:Core/Src/main.c ****   /** Initializes the CPU, AHB and APB buses clocks
 160:Core/Src/main.c ****   */
 161:Core/Src/main.c ****   RCC_ClkInitStruct.ClockType = RCC_CLOCKTYPE_HCLK|RCC_CLOCKTYPE_SYSCLK
 162:Core/Src/main.c ****                               |RCC_CLOCKTYPE_PCLK1|RCC_CLOCKTYPE_PCLK2;
 163:Core/Src/main.c ****   RCC_ClkInitStruct.SYSCLKSource = RCC_SYSCLKSOURCE_PLLCLK;
 164:Core/Src/main.c ****   RCC_ClkInitStruct.AHBCLKDivider = RCC_SYSCLK_DIV2;
 165:Core/Src/main.c ****   RCC_ClkInitStruct.APB1CLKDivider = RCC_HCLK_DIV1;
 166:Core/Src/main.c ****   RCC_ClkInitStruct.APB2CLKDivider = RCC_HCLK_DIV1;
 167:Core/Src/main.c **** 
 168:Core/Src/main.c ****   if (HAL_RCC_ClockConfig(&RCC_ClkInitStruct, FLASH_LATENCY_2) != HAL_OK)
 169:Core/Src/main.c ****   {
 170:Core/Src/main.c ****     Error_Handler();
 171:Core/Src/main.c ****   }
 172:Core/Src/main.c **** }
 173:Core/Src/main.c **** 
 174:Core/Src/main.c **** /**
 175:Core/Src/main.c ****   * @brief I2C1 Initialization Function
 176:Core/Src/main.c ****   * @param None
 177:Core/Src/main.c ****   * @retval None
 178:Core/Src/main.c ****   */
 179:Core/Src/main.c **** static void MX_I2C1_Init(void)
 180:Core/Src/main.c **** {
 181:Core/Src/main.c **** 
 182:Core/Src/main.c ****   /* USER CODE BEGIN I2C1_Init 0 */
 183:Core/Src/main.c ****   
 184:Core/Src/main.c ****   /* USER CODE END I2C1_Init 0 */
 185:Core/Src/main.c **** 
 186:Core/Src/main.c ****   /* USER CODE BEGIN I2C1_Init 1 */
 187:Core/Src/main.c **** 
 188:Core/Src/main.c ****   /* USER CODE END I2C1_Init 1 */
 189:Core/Src/main.c ****   hi2c1.Instance = I2C1;
 190:Core/Src/main.c ****   hi2c1.Init.ClockSpeed = 100000;
 191:Core/Src/main.c ****   hi2c1.Init.DutyCycle = I2C_DUTYCYCLE_2;
 192:Core/Src/main.c ****   hi2c1.Init.OwnAddress1 = 0;
 193:Core/Src/main.c ****   hi2c1.Init.AddressingMode = I2C_ADDRESSINGMODE_7BIT;
 194:Core/Src/main.c ****   hi2c1.Init.DualAddressMode = I2C_DUALADDRESS_DISABLE;
 195:Core/Src/main.c ****   hi2c1.Init.OwnAddress2 = 0;
 196:Core/Src/main.c ****   hi2c1.Init.GeneralCallMode = I2C_GENERALCALL_DISABLE;
 197:Core/Src/main.c ****   hi2c1.Init.NoStretchMode = I2C_NOSTRETCH_DISABLE;
 198:Core/Src/main.c ****   if (HAL_I2C_Init(&hi2c1) != HAL_OK)
 199:Core/Src/main.c ****   {
 200:Core/Src/main.c ****     Error_Handler();
 201:Core/Src/main.c ****   }
 202:Core/Src/main.c ****   /* USER CODE BEGIN I2C1_Init 2 */
 203:Core/Src/main.c **** 
 204:Core/Src/main.c ****   /* USER CODE END I2C1_Init 2 */
ARM GAS  C:\Users\timol\AppData\Local\Temp\ccQ1g8Om.s 			page 5


 205:Core/Src/main.c **** 
 206:Core/Src/main.c **** }
 207:Core/Src/main.c **** 
 208:Core/Src/main.c **** /**
 209:Core/Src/main.c ****   * @brief USART2 Initialization Function
 210:Core/Src/main.c ****   * @param None
 211:Core/Src/main.c ****   * @retval None
 212:Core/Src/main.c ****   */
 213:Core/Src/main.c **** static void MX_USART2_UART_Init(void)
 214:Core/Src/main.c **** {
 215:Core/Src/main.c **** 
 216:Core/Src/main.c ****   /* USER CODE BEGIN USART2_Init 0 */
 217:Core/Src/main.c **** 
 218:Core/Src/main.c ****   /* USER CODE END USART2_Init 0 */
 219:Core/Src/main.c **** 
 220:Core/Src/main.c ****   /* USER CODE BEGIN USART2_Init 1 */
 221:Core/Src/main.c **** 
 222:Core/Src/main.c ****   /* USER CODE END USART2_Init 1 */
 223:Core/Src/main.c ****   huart2.Instance = USART2;
 224:Core/Src/main.c ****   huart2.Init.BaudRate = 115200;
 225:Core/Src/main.c ****   huart2.Init.WordLength = UART_WORDLENGTH_8B;
 226:Core/Src/main.c ****   huart2.Init.StopBits = UART_STOPBITS_1;
 227:Core/Src/main.c ****   huart2.Init.Parity = UART_PARITY_NONE;
 228:Core/Src/main.c ****   huart2.Init.Mode = UART_MODE_TX_RX;
 229:Core/Src/main.c ****   huart2.Init.HwFlowCtl = UART_HWCONTROL_NONE;
 230:Core/Src/main.c ****   huart2.Init.OverSampling = UART_OVERSAMPLING_16;
 231:Core/Src/main.c ****   if (HAL_UART_Init(&huart2) != HAL_OK)
 232:Core/Src/main.c ****   {
 233:Core/Src/main.c ****     Error_Handler();
 234:Core/Src/main.c ****   }
 235:Core/Src/main.c ****   /* USER CODE BEGIN USART2_Init 2 */
 236:Core/Src/main.c **** 
 237:Core/Src/main.c ****   /* USER CODE END USART2_Init 2 */
 238:Core/Src/main.c **** 
 239:Core/Src/main.c **** }
 240:Core/Src/main.c **** 
 241:Core/Src/main.c **** /**
 242:Core/Src/main.c ****   * @brief GPIO Initialization Function
 243:Core/Src/main.c ****   * @param None
 244:Core/Src/main.c ****   * @retval None
 245:Core/Src/main.c ****   */
 246:Core/Src/main.c **** static void MX_GPIO_Init(void)
 247:Core/Src/main.c **** {
  26              		.loc 1 247 1 view -0
  27              		.cfi_startproc
  28              		@ args = 0, pretend = 0, frame = 8
  29              		@ frame_needed = 0, uses_anonymous_args = 0
  30              		@ link register save eliminated.
  31 0000 82B0     		sub	sp, sp, #8
  32              		.cfi_def_cfa_offset 8
 248:Core/Src/main.c **** 
 249:Core/Src/main.c ****   /* GPIO Ports Clock Enable */
 250:Core/Src/main.c ****   __HAL_RCC_GPIOA_CLK_ENABLE();
  33              		.loc 1 250 3 view .LVU1
  34              	.LBB4:
  35              		.loc 1 250 3 view .LVU2
  36              		.loc 1 250 3 view .LVU3
ARM GAS  C:\Users\timol\AppData\Local\Temp\ccQ1g8Om.s 			page 6


  37 0002 0A4B     		ldr	r3, .L3
  38 0004 9A69     		ldr	r2, [r3, #24]
  39 0006 42F00402 		orr	r2, r2, #4
  40 000a 9A61     		str	r2, [r3, #24]
  41              		.loc 1 250 3 view .LVU4
  42 000c 9A69     		ldr	r2, [r3, #24]
  43 000e 02F00402 		and	r2, r2, #4
  44 0012 0092     		str	r2, [sp]
  45              		.loc 1 250 3 view .LVU5
  46 0014 009A     		ldr	r2, [sp]
  47              	.LBE4:
  48              		.loc 1 250 3 view .LVU6
 251:Core/Src/main.c ****   __HAL_RCC_GPIOB_CLK_ENABLE();
  49              		.loc 1 251 3 view .LVU7
  50              	.LBB5:
  51              		.loc 1 251 3 view .LVU8
  52              		.loc 1 251 3 view .LVU9
  53 0016 9A69     		ldr	r2, [r3, #24]
  54 0018 42F00802 		orr	r2, r2, #8
  55 001c 9A61     		str	r2, [r3, #24]
  56              		.loc 1 251 3 view .LVU10
  57 001e 9B69     		ldr	r3, [r3, #24]
  58 0020 03F00803 		and	r3, r3, #8
  59 0024 0193     		str	r3, [sp, #4]
  60              		.loc 1 251 3 view .LVU11
  61 0026 019B     		ldr	r3, [sp, #4]
  62              	.LBE5:
  63              		.loc 1 251 3 view .LVU12
 252:Core/Src/main.c **** 
 253:Core/Src/main.c **** }
  64              		.loc 1 253 1 is_stmt 0 view .LVU13
  65 0028 02B0     		add	sp, sp, #8
  66              		.cfi_def_cfa_offset 0
  67              		@ sp needed
  68 002a 7047     		bx	lr
  69              	.L4:
  70              		.align	2
  71              	.L3:
  72 002c 00100240 		.word	1073876992
  73              		.cfi_endproc
  74              	.LFE73:
  76              		.section	.text.myprintf,"ax",%progbits
  77              		.align	1
  78              		.global	myprintf
  79              		.syntax unified
  80              		.thumb
  81              		.thumb_func
  83              	myprintf:
  84              	.LVL0:
  85              	.LFB68:
  65:Core/Src/main.c ****   static char buffer[256];
  86              		.loc 1 65 37 is_stmt 1 view -0
  87              		.cfi_startproc
  88              		@ args = 4, pretend = 16, frame = 8
  89              		@ frame_needed = 0, uses_anonymous_args = 1
  65:Core/Src/main.c ****   static char buffer[256];
  90              		.loc 1 65 37 is_stmt 0 view .LVU15
ARM GAS  C:\Users\timol\AppData\Local\Temp\ccQ1g8Om.s 			page 7


  91 0000 0FB4     		push	{r0, r1, r2, r3}
  92              		.cfi_def_cfa_offset 16
  93              		.cfi_offset 0, -16
  94              		.cfi_offset 1, -12
  95              		.cfi_offset 2, -8
  96              		.cfi_offset 3, -4
  97 0002 10B5     		push	{r4, lr}
  98              		.cfi_def_cfa_offset 24
  99              		.cfi_offset 4, -24
 100              		.cfi_offset 14, -20
 101 0004 82B0     		sub	sp, sp, #8
 102              		.cfi_def_cfa_offset 32
 103 0006 04AB     		add	r3, sp, #16
 104 0008 53F8042B 		ldr	r2, [r3], #4
  66:Core/Src/main.c ****   va_list args;
 105              		.loc 1 66 3 is_stmt 1 view .LVU16
  67:Core/Src/main.c ****   va_start(args, fmt);
 106              		.loc 1 67 3 view .LVU17
  68:Core/Src/main.c ****   vsnprintf(buffer, sizeof(buffer), fmt, args);
 107              		.loc 1 68 3 view .LVU18
 108 000c 0193     		str	r3, [sp, #4]
  69:Core/Src/main.c ****   va_end(args);
 109              		.loc 1 69 3 view .LVU19
 110 000e 0A4C     		ldr	r4, .L7
 111 0010 4FF48071 		mov	r1, #256
 112 0014 2046     		mov	r0, r4
 113 0016 FFF7FEFF 		bl	vsnprintf
 114              	.LVL1:
  70:Core/Src/main.c **** 
 115              		.loc 1 70 3 view .LVU20
  72:Core/Src/main.c ****   HAL_UART_Transmit(&huart2, (uint8_t*)buffer, len, -1);
 116              		.loc 1 72 3 view .LVU21
  72:Core/Src/main.c ****   HAL_UART_Transmit(&huart2, (uint8_t*)buffer, len, -1);
 117              		.loc 1 72 13 is_stmt 0 view .LVU22
 118 001a 2046     		mov	r0, r4
 119 001c FFF7FEFF 		bl	strlen
 120              	.LVL2:
  73:Core/Src/main.c **** }
 121              		.loc 1 73 3 is_stmt 1 view .LVU23
 122 0020 4FF0FF33 		mov	r3, #-1
 123 0024 82B2     		uxth	r2, r0
 124 0026 2146     		mov	r1, r4
 125 0028 0448     		ldr	r0, .L7+4
 126              	.LVL3:
  73:Core/Src/main.c **** }
 127              		.loc 1 73 3 is_stmt 0 view .LVU24
 128 002a FFF7FEFF 		bl	HAL_UART_Transmit
 129              	.LVL4:
  74:Core/Src/main.c **** 
 130              		.loc 1 74 1 view .LVU25
 131 002e 02B0     		add	sp, sp, #8
 132              		.cfi_def_cfa_offset 24
 133              		@ sp needed
 134 0030 BDE81040 		pop	{r4, lr}
 135              		.cfi_restore 14
 136              		.cfi_restore 4
 137              		.cfi_def_cfa_offset 16
ARM GAS  C:\Users\timol\AppData\Local\Temp\ccQ1g8Om.s 			page 8


 138 0034 04B0     		add	sp, sp, #16
 139              		.cfi_restore 3
 140              		.cfi_restore 2
 141              		.cfi_restore 1
 142              		.cfi_restore 0
 143              		.cfi_def_cfa_offset 0
 144 0036 7047     		bx	lr
 145              	.L8:
 146              		.align	2
 147              	.L7:
 148 0038 00000000 		.word	.LANCHOR0
 149 003c 00000000 		.word	.LANCHOR1
 150              		.cfi_endproc
 151              	.LFE68:
 153              		.section	.text.Error_Handler,"ax",%progbits
 154              		.align	1
 155              		.global	Error_Handler
 156              		.syntax unified
 157              		.thumb
 158              		.thumb_func
 160              	Error_Handler:
 161              	.LFB74:
 254:Core/Src/main.c **** 
 255:Core/Src/main.c **** /* USER CODE BEGIN 4 */
 256:Core/Src/main.c **** 
 257:Core/Src/main.c **** /* USER CODE END 4 */
 258:Core/Src/main.c **** 
 259:Core/Src/main.c **** /**
 260:Core/Src/main.c ****   * @brief  This function is executed in case of error occurrence.
 261:Core/Src/main.c ****   * @retval None
 262:Core/Src/main.c ****   */
 263:Core/Src/main.c **** void Error_Handler(void)
 264:Core/Src/main.c **** {
 162              		.loc 1 264 1 is_stmt 1 view -0
 163              		.cfi_startproc
 164              		@ Volatile: function does not return.
 165              		@ args = 0, pretend = 0, frame = 0
 166              		@ frame_needed = 0, uses_anonymous_args = 0
 167              		@ link register save eliminated.
 265:Core/Src/main.c ****   /* USER CODE BEGIN Error_Handler_Debug */
 266:Core/Src/main.c ****   /* User can add his own implementation to report the HAL error return state */
 267:Core/Src/main.c ****   __disable_irq();
 168              		.loc 1 267 3 view .LVU27
 169              	.LBB6:
 170              	.LBI6:
 171              		.file 2 "Drivers/CMSIS/Include/cmsis_gcc.h"
   1:Drivers/CMSIS/Include/cmsis_gcc.h **** /**************************************************************************//**
   2:Drivers/CMSIS/Include/cmsis_gcc.h ****  * @file     cmsis_gcc.h
   3:Drivers/CMSIS/Include/cmsis_gcc.h ****  * @brief    CMSIS compiler GCC header file
   4:Drivers/CMSIS/Include/cmsis_gcc.h ****  * @version  V5.0.4
   5:Drivers/CMSIS/Include/cmsis_gcc.h ****  * @date     09. April 2018
   6:Drivers/CMSIS/Include/cmsis_gcc.h ****  ******************************************************************************/
   7:Drivers/CMSIS/Include/cmsis_gcc.h **** /*
   8:Drivers/CMSIS/Include/cmsis_gcc.h ****  * Copyright (c) 2009-2018 Arm Limited. All rights reserved.
   9:Drivers/CMSIS/Include/cmsis_gcc.h ****  *
  10:Drivers/CMSIS/Include/cmsis_gcc.h ****  * SPDX-License-Identifier: Apache-2.0
  11:Drivers/CMSIS/Include/cmsis_gcc.h ****  *
ARM GAS  C:\Users\timol\AppData\Local\Temp\ccQ1g8Om.s 			page 9


  12:Drivers/CMSIS/Include/cmsis_gcc.h ****  * Licensed under the Apache License, Version 2.0 (the License); you may
  13:Drivers/CMSIS/Include/cmsis_gcc.h ****  * not use this file except in compliance with the License.
  14:Drivers/CMSIS/Include/cmsis_gcc.h ****  * You may obtain a copy of the License at
  15:Drivers/CMSIS/Include/cmsis_gcc.h ****  *
  16:Drivers/CMSIS/Include/cmsis_gcc.h ****  * www.apache.org/licenses/LICENSE-2.0
  17:Drivers/CMSIS/Include/cmsis_gcc.h ****  *
  18:Drivers/CMSIS/Include/cmsis_gcc.h ****  * Unless required by applicable law or agreed to in writing, software
  19:Drivers/CMSIS/Include/cmsis_gcc.h ****  * distributed under the License is distributed on an AS IS BASIS, WITHOUT
  20:Drivers/CMSIS/Include/cmsis_gcc.h ****  * WARRANTIES OR CONDITIONS OF ANY KIND, either express or implied.
  21:Drivers/CMSIS/Include/cmsis_gcc.h ****  * See the License for the specific language governing permissions and
  22:Drivers/CMSIS/Include/cmsis_gcc.h ****  * limitations under the License.
  23:Drivers/CMSIS/Include/cmsis_gcc.h ****  */
  24:Drivers/CMSIS/Include/cmsis_gcc.h **** 
  25:Drivers/CMSIS/Include/cmsis_gcc.h **** #ifndef __CMSIS_GCC_H
  26:Drivers/CMSIS/Include/cmsis_gcc.h **** #define __CMSIS_GCC_H
  27:Drivers/CMSIS/Include/cmsis_gcc.h **** 
  28:Drivers/CMSIS/Include/cmsis_gcc.h **** /* ignore some GCC warnings */
  29:Drivers/CMSIS/Include/cmsis_gcc.h **** #pragma GCC diagnostic push
  30:Drivers/CMSIS/Include/cmsis_gcc.h **** #pragma GCC diagnostic ignored "-Wsign-conversion"
  31:Drivers/CMSIS/Include/cmsis_gcc.h **** #pragma GCC diagnostic ignored "-Wconversion"
  32:Drivers/CMSIS/Include/cmsis_gcc.h **** #pragma GCC diagnostic ignored "-Wunused-parameter"
  33:Drivers/CMSIS/Include/cmsis_gcc.h **** 
  34:Drivers/CMSIS/Include/cmsis_gcc.h **** /* Fallback for __has_builtin */
  35:Drivers/CMSIS/Include/cmsis_gcc.h **** #ifndef __has_builtin
  36:Drivers/CMSIS/Include/cmsis_gcc.h ****   #define __has_builtin(x) (0)
  37:Drivers/CMSIS/Include/cmsis_gcc.h **** #endif
  38:Drivers/CMSIS/Include/cmsis_gcc.h **** 
  39:Drivers/CMSIS/Include/cmsis_gcc.h **** /* CMSIS compiler specific defines */
  40:Drivers/CMSIS/Include/cmsis_gcc.h **** #ifndef   __ASM
  41:Drivers/CMSIS/Include/cmsis_gcc.h ****   #define __ASM                                  __asm
  42:Drivers/CMSIS/Include/cmsis_gcc.h **** #endif
  43:Drivers/CMSIS/Include/cmsis_gcc.h **** #ifndef   __INLINE
  44:Drivers/CMSIS/Include/cmsis_gcc.h ****   #define __INLINE                               inline
  45:Drivers/CMSIS/Include/cmsis_gcc.h **** #endif
  46:Drivers/CMSIS/Include/cmsis_gcc.h **** #ifndef   __STATIC_INLINE
  47:Drivers/CMSIS/Include/cmsis_gcc.h ****   #define __STATIC_INLINE                        static inline
  48:Drivers/CMSIS/Include/cmsis_gcc.h **** #endif
  49:Drivers/CMSIS/Include/cmsis_gcc.h **** #ifndef   __STATIC_FORCEINLINE                 
  50:Drivers/CMSIS/Include/cmsis_gcc.h ****   #define __STATIC_FORCEINLINE                   __attribute__((always_inline)) static inline
  51:Drivers/CMSIS/Include/cmsis_gcc.h **** #endif                                           
  52:Drivers/CMSIS/Include/cmsis_gcc.h **** #ifndef   __NO_RETURN
  53:Drivers/CMSIS/Include/cmsis_gcc.h ****   #define __NO_RETURN                            __attribute__((__noreturn__))
  54:Drivers/CMSIS/Include/cmsis_gcc.h **** #endif
  55:Drivers/CMSIS/Include/cmsis_gcc.h **** #ifndef   __USED
  56:Drivers/CMSIS/Include/cmsis_gcc.h ****   #define __USED                                 __attribute__((used))
  57:Drivers/CMSIS/Include/cmsis_gcc.h **** #endif
  58:Drivers/CMSIS/Include/cmsis_gcc.h **** #ifndef   __WEAK
  59:Drivers/CMSIS/Include/cmsis_gcc.h ****   #define __WEAK                                 __attribute__((weak))
  60:Drivers/CMSIS/Include/cmsis_gcc.h **** #endif
  61:Drivers/CMSIS/Include/cmsis_gcc.h **** #ifndef   __PACKED
  62:Drivers/CMSIS/Include/cmsis_gcc.h ****   #define __PACKED                               __attribute__((packed, aligned(1)))
  63:Drivers/CMSIS/Include/cmsis_gcc.h **** #endif
  64:Drivers/CMSIS/Include/cmsis_gcc.h **** #ifndef   __PACKED_STRUCT
  65:Drivers/CMSIS/Include/cmsis_gcc.h ****   #define __PACKED_STRUCT                        struct __attribute__((packed, aligned(1)))
  66:Drivers/CMSIS/Include/cmsis_gcc.h **** #endif
  67:Drivers/CMSIS/Include/cmsis_gcc.h **** #ifndef   __PACKED_UNION
  68:Drivers/CMSIS/Include/cmsis_gcc.h ****   #define __PACKED_UNION                         union __attribute__((packed, aligned(1)))
ARM GAS  C:\Users\timol\AppData\Local\Temp\ccQ1g8Om.s 			page 10


  69:Drivers/CMSIS/Include/cmsis_gcc.h **** #endif
  70:Drivers/CMSIS/Include/cmsis_gcc.h **** #ifndef   __UNALIGNED_UINT32        /* deprecated */
  71:Drivers/CMSIS/Include/cmsis_gcc.h ****   #pragma GCC diagnostic push
  72:Drivers/CMSIS/Include/cmsis_gcc.h ****   #pragma GCC diagnostic ignored "-Wpacked"
  73:Drivers/CMSIS/Include/cmsis_gcc.h ****   #pragma GCC diagnostic ignored "-Wattributes"
  74:Drivers/CMSIS/Include/cmsis_gcc.h ****   struct __attribute__((packed)) T_UINT32 { uint32_t v; };
  75:Drivers/CMSIS/Include/cmsis_gcc.h ****   #pragma GCC diagnostic pop
  76:Drivers/CMSIS/Include/cmsis_gcc.h ****   #define __UNALIGNED_UINT32(x)                  (((struct T_UINT32 *)(x))->v)
  77:Drivers/CMSIS/Include/cmsis_gcc.h **** #endif
  78:Drivers/CMSIS/Include/cmsis_gcc.h **** #ifndef   __UNALIGNED_UINT16_WRITE
  79:Drivers/CMSIS/Include/cmsis_gcc.h ****   #pragma GCC diagnostic push
  80:Drivers/CMSIS/Include/cmsis_gcc.h ****   #pragma GCC diagnostic ignored "-Wpacked"
  81:Drivers/CMSIS/Include/cmsis_gcc.h ****   #pragma GCC diagnostic ignored "-Wattributes"
  82:Drivers/CMSIS/Include/cmsis_gcc.h ****   __PACKED_STRUCT T_UINT16_WRITE { uint16_t v; };
  83:Drivers/CMSIS/Include/cmsis_gcc.h ****   #pragma GCC diagnostic pop
  84:Drivers/CMSIS/Include/cmsis_gcc.h ****   #define __UNALIGNED_UINT16_WRITE(addr, val)    (void)((((struct T_UINT16_WRITE *)(void *)(addr))-
  85:Drivers/CMSIS/Include/cmsis_gcc.h **** #endif
  86:Drivers/CMSIS/Include/cmsis_gcc.h **** #ifndef   __UNALIGNED_UINT16_READ
  87:Drivers/CMSIS/Include/cmsis_gcc.h ****   #pragma GCC diagnostic push
  88:Drivers/CMSIS/Include/cmsis_gcc.h ****   #pragma GCC diagnostic ignored "-Wpacked"
  89:Drivers/CMSIS/Include/cmsis_gcc.h ****   #pragma GCC diagnostic ignored "-Wattributes"
  90:Drivers/CMSIS/Include/cmsis_gcc.h ****   __PACKED_STRUCT T_UINT16_READ { uint16_t v; };
  91:Drivers/CMSIS/Include/cmsis_gcc.h ****   #pragma GCC diagnostic pop
  92:Drivers/CMSIS/Include/cmsis_gcc.h ****   #define __UNALIGNED_UINT16_READ(addr)          (((const struct T_UINT16_READ *)(const void *)(add
  93:Drivers/CMSIS/Include/cmsis_gcc.h **** #endif
  94:Drivers/CMSIS/Include/cmsis_gcc.h **** #ifndef   __UNALIGNED_UINT32_WRITE
  95:Drivers/CMSIS/Include/cmsis_gcc.h ****   #pragma GCC diagnostic push
  96:Drivers/CMSIS/Include/cmsis_gcc.h ****   #pragma GCC diagnostic ignored "-Wpacked"
  97:Drivers/CMSIS/Include/cmsis_gcc.h ****   #pragma GCC diagnostic ignored "-Wattributes"
  98:Drivers/CMSIS/Include/cmsis_gcc.h ****   __PACKED_STRUCT T_UINT32_WRITE { uint32_t v; };
  99:Drivers/CMSIS/Include/cmsis_gcc.h ****   #pragma GCC diagnostic pop
 100:Drivers/CMSIS/Include/cmsis_gcc.h ****   #define __UNALIGNED_UINT32_WRITE(addr, val)    (void)((((struct T_UINT32_WRITE *)(void *)(addr))-
 101:Drivers/CMSIS/Include/cmsis_gcc.h **** #endif
 102:Drivers/CMSIS/Include/cmsis_gcc.h **** #ifndef   __UNALIGNED_UINT32_READ
 103:Drivers/CMSIS/Include/cmsis_gcc.h ****   #pragma GCC diagnostic push
 104:Drivers/CMSIS/Include/cmsis_gcc.h ****   #pragma GCC diagnostic ignored "-Wpacked"
 105:Drivers/CMSIS/Include/cmsis_gcc.h ****   #pragma GCC diagnostic ignored "-Wattributes"
 106:Drivers/CMSIS/Include/cmsis_gcc.h ****   __PACKED_STRUCT T_UINT32_READ { uint32_t v; };
 107:Drivers/CMSIS/Include/cmsis_gcc.h ****   #pragma GCC diagnostic pop
 108:Drivers/CMSIS/Include/cmsis_gcc.h ****   #define __UNALIGNED_UINT32_READ(addr)          (((const struct T_UINT32_READ *)(const void *)(add
 109:Drivers/CMSIS/Include/cmsis_gcc.h **** #endif
 110:Drivers/CMSIS/Include/cmsis_gcc.h **** #ifndef   __ALIGNED
 111:Drivers/CMSIS/Include/cmsis_gcc.h ****   #define __ALIGNED(x)                           __attribute__((aligned(x)))
 112:Drivers/CMSIS/Include/cmsis_gcc.h **** #endif
 113:Drivers/CMSIS/Include/cmsis_gcc.h **** #ifndef   __RESTRICT
 114:Drivers/CMSIS/Include/cmsis_gcc.h ****   #define __RESTRICT                             __restrict
 115:Drivers/CMSIS/Include/cmsis_gcc.h **** #endif
 116:Drivers/CMSIS/Include/cmsis_gcc.h **** 
 117:Drivers/CMSIS/Include/cmsis_gcc.h **** 
 118:Drivers/CMSIS/Include/cmsis_gcc.h **** /* ###########################  Core Function Access  ########################### */
 119:Drivers/CMSIS/Include/cmsis_gcc.h **** /** \ingroup  CMSIS_Core_FunctionInterface
 120:Drivers/CMSIS/Include/cmsis_gcc.h ****     \defgroup CMSIS_Core_RegAccFunctions CMSIS Core Register Access Functions
 121:Drivers/CMSIS/Include/cmsis_gcc.h ****   @{
 122:Drivers/CMSIS/Include/cmsis_gcc.h ****  */
 123:Drivers/CMSIS/Include/cmsis_gcc.h **** 
 124:Drivers/CMSIS/Include/cmsis_gcc.h **** /**
 125:Drivers/CMSIS/Include/cmsis_gcc.h ****   \brief   Enable IRQ Interrupts
ARM GAS  C:\Users\timol\AppData\Local\Temp\ccQ1g8Om.s 			page 11


 126:Drivers/CMSIS/Include/cmsis_gcc.h ****   \details Enables IRQ interrupts by clearing the I-bit in the CPSR.
 127:Drivers/CMSIS/Include/cmsis_gcc.h ****            Can only be executed in Privileged modes.
 128:Drivers/CMSIS/Include/cmsis_gcc.h ****  */
 129:Drivers/CMSIS/Include/cmsis_gcc.h **** __STATIC_FORCEINLINE void __enable_irq(void)
 130:Drivers/CMSIS/Include/cmsis_gcc.h **** {
 131:Drivers/CMSIS/Include/cmsis_gcc.h ****   __ASM volatile ("cpsie i" : : : "memory");
 132:Drivers/CMSIS/Include/cmsis_gcc.h **** }
 133:Drivers/CMSIS/Include/cmsis_gcc.h **** 
 134:Drivers/CMSIS/Include/cmsis_gcc.h **** 
 135:Drivers/CMSIS/Include/cmsis_gcc.h **** /**
 136:Drivers/CMSIS/Include/cmsis_gcc.h ****   \brief   Disable IRQ Interrupts
 137:Drivers/CMSIS/Include/cmsis_gcc.h ****   \details Disables IRQ interrupts by setting the I-bit in the CPSR.
 138:Drivers/CMSIS/Include/cmsis_gcc.h ****            Can only be executed in Privileged modes.
 139:Drivers/CMSIS/Include/cmsis_gcc.h ****  */
 140:Drivers/CMSIS/Include/cmsis_gcc.h **** __STATIC_FORCEINLINE void __disable_irq(void)
 172              		.loc 2 140 27 view .LVU28
 173              	.LBB7:
 141:Drivers/CMSIS/Include/cmsis_gcc.h **** {
 142:Drivers/CMSIS/Include/cmsis_gcc.h ****   __ASM volatile ("cpsid i" : : : "memory");
 174              		.loc 2 142 3 view .LVU29
 175              		.syntax unified
 176              	@ 142 "Drivers/CMSIS/Include/cmsis_gcc.h" 1
 177 0000 72B6     		cpsid i
 178              	@ 0 "" 2
 179              		.thumb
 180              		.syntax unified
 181              	.L10:
 182              	.LBE7:
 183              	.LBE6:
 268:Core/Src/main.c ****   while (1)
 184              		.loc 1 268 3 discriminator 1 view .LVU30
 269:Core/Src/main.c ****   {
 270:Core/Src/main.c ****   }
 185              		.loc 1 270 3 discriminator 1 view .LVU31
 268:Core/Src/main.c ****   while (1)
 186              		.loc 1 268 9 discriminator 1 view .LVU32
 187 0002 FEE7     		b	.L10
 188              		.cfi_endproc
 189              	.LFE74:
 191              		.section	.text.MX_USART2_UART_Init,"ax",%progbits
 192              		.align	1
 193              		.syntax unified
 194              		.thumb
 195              		.thumb_func
 197              	MX_USART2_UART_Init:
 198              	.LFB72:
 214:Core/Src/main.c **** 
 199              		.loc 1 214 1 view -0
 200              		.cfi_startproc
 201              		@ args = 0, pretend = 0, frame = 0
 202              		@ frame_needed = 0, uses_anonymous_args = 0
 203 0000 08B5     		push	{r3, lr}
 204              		.cfi_def_cfa_offset 8
 205              		.cfi_offset 3, -8
 206              		.cfi_offset 14, -4
 223:Core/Src/main.c ****   huart2.Init.BaudRate = 115200;
 207              		.loc 1 223 3 view .LVU34
ARM GAS  C:\Users\timol\AppData\Local\Temp\ccQ1g8Om.s 			page 12


 223:Core/Src/main.c ****   huart2.Init.BaudRate = 115200;
 208              		.loc 1 223 19 is_stmt 0 view .LVU35
 209 0002 0A48     		ldr	r0, .L15
 210 0004 0A4B     		ldr	r3, .L15+4
 211 0006 0360     		str	r3, [r0]
 224:Core/Src/main.c ****   huart2.Init.WordLength = UART_WORDLENGTH_8B;
 212              		.loc 1 224 3 is_stmt 1 view .LVU36
 224:Core/Src/main.c ****   huart2.Init.WordLength = UART_WORDLENGTH_8B;
 213              		.loc 1 224 24 is_stmt 0 view .LVU37
 214 0008 4FF4E133 		mov	r3, #115200
 215 000c 4360     		str	r3, [r0, #4]
 225:Core/Src/main.c ****   huart2.Init.StopBits = UART_STOPBITS_1;
 216              		.loc 1 225 3 is_stmt 1 view .LVU38
 225:Core/Src/main.c ****   huart2.Init.StopBits = UART_STOPBITS_1;
 217              		.loc 1 225 26 is_stmt 0 view .LVU39
 218 000e 0023     		movs	r3, #0
 219 0010 8360     		str	r3, [r0, #8]
 226:Core/Src/main.c ****   huart2.Init.Parity = UART_PARITY_NONE;
 220              		.loc 1 226 3 is_stmt 1 view .LVU40
 226:Core/Src/main.c ****   huart2.Init.Parity = UART_PARITY_NONE;
 221              		.loc 1 226 24 is_stmt 0 view .LVU41
 222 0012 C360     		str	r3, [r0, #12]
 227:Core/Src/main.c ****   huart2.Init.Mode = UART_MODE_TX_RX;
 223              		.loc 1 227 3 is_stmt 1 view .LVU42
 227:Core/Src/main.c ****   huart2.Init.Mode = UART_MODE_TX_RX;
 224              		.loc 1 227 22 is_stmt 0 view .LVU43
 225 0014 0361     		str	r3, [r0, #16]
 228:Core/Src/main.c ****   huart2.Init.HwFlowCtl = UART_HWCONTROL_NONE;
 226              		.loc 1 228 3 is_stmt 1 view .LVU44
 228:Core/Src/main.c ****   huart2.Init.HwFlowCtl = UART_HWCONTROL_NONE;
 227              		.loc 1 228 20 is_stmt 0 view .LVU45
 228 0016 0C22     		movs	r2, #12
 229 0018 4261     		str	r2, [r0, #20]
 229:Core/Src/main.c ****   huart2.Init.OverSampling = UART_OVERSAMPLING_16;
 230              		.loc 1 229 3 is_stmt 1 view .LVU46
 229:Core/Src/main.c ****   huart2.Init.OverSampling = UART_OVERSAMPLING_16;
 231              		.loc 1 229 25 is_stmt 0 view .LVU47
 232 001a 8361     		str	r3, [r0, #24]
 230:Core/Src/main.c ****   if (HAL_UART_Init(&huart2) != HAL_OK)
 233              		.loc 1 230 3 is_stmt 1 view .LVU48
 230:Core/Src/main.c ****   if (HAL_UART_Init(&huart2) != HAL_OK)
 234              		.loc 1 230 28 is_stmt 0 view .LVU49
 235 001c C361     		str	r3, [r0, #28]
 231:Core/Src/main.c ****   {
 236              		.loc 1 231 3 is_stmt 1 view .LVU50
 231:Core/Src/main.c ****   {
 237              		.loc 1 231 7 is_stmt 0 view .LVU51
 238 001e FFF7FEFF 		bl	HAL_UART_Init
 239              	.LVL5:
 231:Core/Src/main.c ****   {
 240              		.loc 1 231 6 view .LVU52
 241 0022 00B9     		cbnz	r0, .L14
 239:Core/Src/main.c **** 
 242              		.loc 1 239 1 view .LVU53
 243 0024 08BD     		pop	{r3, pc}
 244              	.L14:
 233:Core/Src/main.c ****   }
ARM GAS  C:\Users\timol\AppData\Local\Temp\ccQ1g8Om.s 			page 13


 245              		.loc 1 233 5 is_stmt 1 view .LVU54
 246 0026 FFF7FEFF 		bl	Error_Handler
 247              	.LVL6:
 248              	.L16:
 249 002a 00BF     		.align	2
 250              	.L15:
 251 002c 00000000 		.word	.LANCHOR1
 252 0030 00440040 		.word	1073759232
 253              		.cfi_endproc
 254              	.LFE72:
 256              		.section	.text.MX_I2C1_Init,"ax",%progbits
 257              		.align	1
 258              		.syntax unified
 259              		.thumb
 260              		.thumb_func
 262              	MX_I2C1_Init:
 263              	.LFB71:
 180:Core/Src/main.c **** 
 264              		.loc 1 180 1 view -0
 265              		.cfi_startproc
 266              		@ args = 0, pretend = 0, frame = 0
 267              		@ frame_needed = 0, uses_anonymous_args = 0
 268 0000 08B5     		push	{r3, lr}
 269              		.cfi_def_cfa_offset 8
 270              		.cfi_offset 3, -8
 271              		.cfi_offset 14, -4
 189:Core/Src/main.c ****   hi2c1.Init.ClockSpeed = 100000;
 272              		.loc 1 189 3 view .LVU56
 189:Core/Src/main.c ****   hi2c1.Init.ClockSpeed = 100000;
 273              		.loc 1 189 18 is_stmt 0 view .LVU57
 274 0002 0A48     		ldr	r0, .L21
 275 0004 0A4B     		ldr	r3, .L21+4
 276 0006 0360     		str	r3, [r0]
 190:Core/Src/main.c ****   hi2c1.Init.DutyCycle = I2C_DUTYCYCLE_2;
 277              		.loc 1 190 3 is_stmt 1 view .LVU58
 190:Core/Src/main.c ****   hi2c1.Init.DutyCycle = I2C_DUTYCYCLE_2;
 278              		.loc 1 190 25 is_stmt 0 view .LVU59
 279 0008 0A4B     		ldr	r3, .L21+8
 280 000a 4360     		str	r3, [r0, #4]
 191:Core/Src/main.c ****   hi2c1.Init.OwnAddress1 = 0;
 281              		.loc 1 191 3 is_stmt 1 view .LVU60
 191:Core/Src/main.c ****   hi2c1.Init.OwnAddress1 = 0;
 282              		.loc 1 191 24 is_stmt 0 view .LVU61
 283 000c 0023     		movs	r3, #0
 284 000e 8360     		str	r3, [r0, #8]
 192:Core/Src/main.c ****   hi2c1.Init.AddressingMode = I2C_ADDRESSINGMODE_7BIT;
 285              		.loc 1 192 3 is_stmt 1 view .LVU62
 192:Core/Src/main.c ****   hi2c1.Init.AddressingMode = I2C_ADDRESSINGMODE_7BIT;
 286              		.loc 1 192 26 is_stmt 0 view .LVU63
 287 0010 C360     		str	r3, [r0, #12]
 193:Core/Src/main.c ****   hi2c1.Init.DualAddressMode = I2C_DUALADDRESS_DISABLE;
 288              		.loc 1 193 3 is_stmt 1 view .LVU64
 193:Core/Src/main.c ****   hi2c1.Init.DualAddressMode = I2C_DUALADDRESS_DISABLE;
 289              		.loc 1 193 29 is_stmt 0 view .LVU65
 290 0012 4FF48042 		mov	r2, #16384
 291 0016 0261     		str	r2, [r0, #16]
 194:Core/Src/main.c ****   hi2c1.Init.OwnAddress2 = 0;
ARM GAS  C:\Users\timol\AppData\Local\Temp\ccQ1g8Om.s 			page 14


 292              		.loc 1 194 3 is_stmt 1 view .LVU66
 194:Core/Src/main.c ****   hi2c1.Init.OwnAddress2 = 0;
 293              		.loc 1 194 30 is_stmt 0 view .LVU67
 294 0018 4361     		str	r3, [r0, #20]
 195:Core/Src/main.c ****   hi2c1.Init.GeneralCallMode = I2C_GENERALCALL_DISABLE;
 295              		.loc 1 195 3 is_stmt 1 view .LVU68
 195:Core/Src/main.c ****   hi2c1.Init.GeneralCallMode = I2C_GENERALCALL_DISABLE;
 296              		.loc 1 195 26 is_stmt 0 view .LVU69
 297 001a 8361     		str	r3, [r0, #24]
 196:Core/Src/main.c ****   hi2c1.Init.NoStretchMode = I2C_NOSTRETCH_DISABLE;
 298              		.loc 1 196 3 is_stmt 1 view .LVU70
 196:Core/Src/main.c ****   hi2c1.Init.NoStretchMode = I2C_NOSTRETCH_DISABLE;
 299              		.loc 1 196 30 is_stmt 0 view .LVU71
 300 001c C361     		str	r3, [r0, #28]
 197:Core/Src/main.c ****   if (HAL_I2C_Init(&hi2c1) != HAL_OK)
 301              		.loc 1 197 3 is_stmt 1 view .LVU72
 197:Core/Src/main.c ****   if (HAL_I2C_Init(&hi2c1) != HAL_OK)
 302              		.loc 1 197 28 is_stmt 0 view .LVU73
 303 001e 0362     		str	r3, [r0, #32]
 198:Core/Src/main.c ****   {
 304              		.loc 1 198 3 is_stmt 1 view .LVU74
 198:Core/Src/main.c ****   {
 305              		.loc 1 198 7 is_stmt 0 view .LVU75
 306 0020 FFF7FEFF 		bl	HAL_I2C_Init
 307              	.LVL7:
 198:Core/Src/main.c ****   {
 308              		.loc 1 198 6 view .LVU76
 309 0024 00B9     		cbnz	r0, .L20
 206:Core/Src/main.c **** 
 310              		.loc 1 206 1 view .LVU77
 311 0026 08BD     		pop	{r3, pc}
 312              	.L20:
 200:Core/Src/main.c ****   }
 313              		.loc 1 200 5 is_stmt 1 view .LVU78
 314 0028 FFF7FEFF 		bl	Error_Handler
 315              	.LVL8:
 316              	.L22:
 317              		.align	2
 318              	.L21:
 319 002c 00000000 		.word	.LANCHOR2
 320 0030 00540040 		.word	1073763328
 321 0034 A0860100 		.word	100000
 322              		.cfi_endproc
 323              	.LFE71:
 325              		.section	.text.SystemClock_Config,"ax",%progbits
 326              		.align	1
 327              		.global	SystemClock_Config
 328              		.syntax unified
 329              		.thumb
 330              		.thumb_func
 332              	SystemClock_Config:
 333              	.LFB70:
 141:Core/Src/main.c ****   RCC_OscInitTypeDef RCC_OscInitStruct = {0};
 334              		.loc 1 141 1 view -0
 335              		.cfi_startproc
 336              		@ args = 0, pretend = 0, frame = 64
 337              		@ frame_needed = 0, uses_anonymous_args = 0
ARM GAS  C:\Users\timol\AppData\Local\Temp\ccQ1g8Om.s 			page 15


 338 0000 00B5     		push	{lr}
 339              		.cfi_def_cfa_offset 4
 340              		.cfi_offset 14, -4
 341 0002 91B0     		sub	sp, sp, #68
 342              		.cfi_def_cfa_offset 72
 142:Core/Src/main.c ****   RCC_ClkInitTypeDef RCC_ClkInitStruct = {0};
 343              		.loc 1 142 3 view .LVU80
 142:Core/Src/main.c ****   RCC_ClkInitTypeDef RCC_ClkInitStruct = {0};
 344              		.loc 1 142 22 is_stmt 0 view .LVU81
 345 0004 2822     		movs	r2, #40
 346 0006 0021     		movs	r1, #0
 347 0008 06A8     		add	r0, sp, #24
 348 000a FFF7FEFF 		bl	memset
 349              	.LVL9:
 143:Core/Src/main.c **** 
 350              		.loc 1 143 3 is_stmt 1 view .LVU82
 143:Core/Src/main.c **** 
 351              		.loc 1 143 22 is_stmt 0 view .LVU83
 352 000e 0023     		movs	r3, #0
 353 0010 0193     		str	r3, [sp, #4]
 354 0012 0293     		str	r3, [sp, #8]
 355 0014 0393     		str	r3, [sp, #12]
 356 0016 0493     		str	r3, [sp, #16]
 357 0018 0593     		str	r3, [sp, #20]
 148:Core/Src/main.c ****   RCC_OscInitStruct.HSIState = RCC_HSI_ON;
 358              		.loc 1 148 3 is_stmt 1 view .LVU84
 148:Core/Src/main.c ****   RCC_OscInitStruct.HSIState = RCC_HSI_ON;
 359              		.loc 1 148 36 is_stmt 0 view .LVU85
 360 001a 0223     		movs	r3, #2
 361 001c 0693     		str	r3, [sp, #24]
 149:Core/Src/main.c ****   RCC_OscInitStruct.HSICalibrationValue = RCC_HSICALIBRATION_DEFAULT;
 362              		.loc 1 149 3 is_stmt 1 view .LVU86
 149:Core/Src/main.c ****   RCC_OscInitStruct.HSICalibrationValue = RCC_HSICALIBRATION_DEFAULT;
 363              		.loc 1 149 30 is_stmt 0 view .LVU87
 364 001e 0122     		movs	r2, #1
 365 0020 0A92     		str	r2, [sp, #40]
 150:Core/Src/main.c ****   RCC_OscInitStruct.PLL.PLLState = RCC_PLL_ON;
 366              		.loc 1 150 3 is_stmt 1 view .LVU88
 150:Core/Src/main.c ****   RCC_OscInitStruct.PLL.PLLState = RCC_PLL_ON;
 367              		.loc 1 150 41 is_stmt 0 view .LVU89
 368 0022 1022     		movs	r2, #16
 369 0024 0B92     		str	r2, [sp, #44]
 151:Core/Src/main.c ****   RCC_OscInitStruct.PLL.PLLSource = RCC_PLLSOURCE_HSI_DIV2;
 370              		.loc 1 151 3 is_stmt 1 view .LVU90
 151:Core/Src/main.c ****   RCC_OscInitStruct.PLL.PLLSource = RCC_PLLSOURCE_HSI_DIV2;
 371              		.loc 1 151 34 is_stmt 0 view .LVU91
 372 0026 0D93     		str	r3, [sp, #52]
 152:Core/Src/main.c ****   RCC_OscInitStruct.PLL.PLLMUL = RCC_PLL_MUL16;
 373              		.loc 1 152 3 is_stmt 1 view .LVU92
 153:Core/Src/main.c ****   if (HAL_RCC_OscConfig(&RCC_OscInitStruct) != HAL_OK)
 374              		.loc 1 153 3 view .LVU93
 153:Core/Src/main.c ****   if (HAL_RCC_OscConfig(&RCC_OscInitStruct) != HAL_OK)
 375              		.loc 1 153 32 is_stmt 0 view .LVU94
 376 0028 4FF46013 		mov	r3, #3670016
 377 002c 0F93     		str	r3, [sp, #60]
 154:Core/Src/main.c ****   {
 378              		.loc 1 154 3 is_stmt 1 view .LVU95
ARM GAS  C:\Users\timol\AppData\Local\Temp\ccQ1g8Om.s 			page 16


 154:Core/Src/main.c ****   {
 379              		.loc 1 154 7 is_stmt 0 view .LVU96
 380 002e 06A8     		add	r0, sp, #24
 381 0030 FFF7FEFF 		bl	HAL_RCC_OscConfig
 382              	.LVL10:
 154:Core/Src/main.c ****   {
 383              		.loc 1 154 6 view .LVU97
 384 0034 78B9     		cbnz	r0, .L27
 161:Core/Src/main.c ****                               |RCC_CLOCKTYPE_PCLK1|RCC_CLOCKTYPE_PCLK2;
 385              		.loc 1 161 3 is_stmt 1 view .LVU98
 161:Core/Src/main.c ****                               |RCC_CLOCKTYPE_PCLK1|RCC_CLOCKTYPE_PCLK2;
 386              		.loc 1 161 31 is_stmt 0 view .LVU99
 387 0036 0F23     		movs	r3, #15
 388 0038 0193     		str	r3, [sp, #4]
 163:Core/Src/main.c ****   RCC_ClkInitStruct.AHBCLKDivider = RCC_SYSCLK_DIV2;
 389              		.loc 1 163 3 is_stmt 1 view .LVU100
 163:Core/Src/main.c ****   RCC_ClkInitStruct.AHBCLKDivider = RCC_SYSCLK_DIV2;
 390              		.loc 1 163 34 is_stmt 0 view .LVU101
 391 003a 0221     		movs	r1, #2
 392 003c 0291     		str	r1, [sp, #8]
 164:Core/Src/main.c ****   RCC_ClkInitStruct.APB1CLKDivider = RCC_HCLK_DIV1;
 393              		.loc 1 164 3 is_stmt 1 view .LVU102
 164:Core/Src/main.c ****   RCC_ClkInitStruct.APB1CLKDivider = RCC_HCLK_DIV1;
 394              		.loc 1 164 35 is_stmt 0 view .LVU103
 395 003e 8023     		movs	r3, #128
 396 0040 0393     		str	r3, [sp, #12]
 165:Core/Src/main.c ****   RCC_ClkInitStruct.APB2CLKDivider = RCC_HCLK_DIV1;
 397              		.loc 1 165 3 is_stmt 1 view .LVU104
 165:Core/Src/main.c ****   RCC_ClkInitStruct.APB2CLKDivider = RCC_HCLK_DIV1;
 398              		.loc 1 165 36 is_stmt 0 view .LVU105
 399 0042 0023     		movs	r3, #0
 400 0044 0493     		str	r3, [sp, #16]
 166:Core/Src/main.c **** 
 401              		.loc 1 166 3 is_stmt 1 view .LVU106
 166:Core/Src/main.c **** 
 402              		.loc 1 166 36 is_stmt 0 view .LVU107
 403 0046 0593     		str	r3, [sp, #20]
 168:Core/Src/main.c ****   {
 404              		.loc 1 168 3 is_stmt 1 view .LVU108
 168:Core/Src/main.c ****   {
 405              		.loc 1 168 7 is_stmt 0 view .LVU109
 406 0048 01A8     		add	r0, sp, #4
 407 004a FFF7FEFF 		bl	HAL_RCC_ClockConfig
 408              	.LVL11:
 168:Core/Src/main.c ****   {
 409              		.loc 1 168 6 view .LVU110
 410 004e 20B9     		cbnz	r0, .L28
 172:Core/Src/main.c **** 
 411              		.loc 1 172 1 view .LVU111
 412 0050 11B0     		add	sp, sp, #68
 413              		.cfi_remember_state
 414              		.cfi_def_cfa_offset 4
 415              		@ sp needed
 416 0052 5DF804FB 		ldr	pc, [sp], #4
 417              	.L27:
 418              		.cfi_restore_state
 156:Core/Src/main.c ****   }
ARM GAS  C:\Users\timol\AppData\Local\Temp\ccQ1g8Om.s 			page 17


 419              		.loc 1 156 5 is_stmt 1 view .LVU112
 420 0056 FFF7FEFF 		bl	Error_Handler
 421              	.LVL12:
 422              	.L28:
 170:Core/Src/main.c ****   }
 423              		.loc 1 170 5 view .LVU113
 424 005a FFF7FEFF 		bl	Error_Handler
 425              	.LVL13:
 426              		.cfi_endproc
 427              	.LFE70:
 429              		.section	.rodata.main.str1.4,"aMS",%progbits,1
 430              		.align	2
 431              	.LC0:
 432 0000 496E6974 		.ascii	"Init failed!\000"
 432      20666169 
 432      6C656421 
 432      00
 433 000d 000000   		.align	2
 434              	.LC1:
 435 0010 53656E73 		.ascii	"Sensor initialized\012\015\000"
 435      6F722069 
 435      6E697469 
 435      616C697A 
 435      65640A0D 
 436              		.global	__aeabi_f2iz
 437 0025 000000   		.align	2
 438              	.LC2:
 439 0028 416C7469 		.ascii	"Altitude: %d, Depth: %d\015\012\000"
 439      74756465 
 439      3A202564 
 439      2C204465 
 439      7074683A 
 440              		.section	.text.main,"ax",%progbits
 441              		.align	1
 442              		.global	main
 443              		.syntax unified
 444              		.thumb
 445              		.thumb_func
 447              	main:
 448              	.LFB69:
  83:Core/Src/main.c ****   /* USER CODE BEGIN 1 */
 449              		.loc 1 83 1 view -0
 450              		.cfi_startproc
 451              		@ args = 0, pretend = 0, frame = 0
 452              		@ frame_needed = 0, uses_anonymous_args = 0
 453 0000 38B5     		push	{r3, r4, r5, lr}
 454              		.cfi_def_cfa_offset 16
 455              		.cfi_offset 3, -16
 456              		.cfi_offset 4, -12
 457              		.cfi_offset 5, -8
 458              		.cfi_offset 14, -4
  85:Core/Src/main.c ****   float depth_float = 0;
 459              		.loc 1 85 3 view .LVU115
 460              	.LVL14:
  86:Core/Src/main.c **** 
 461              		.loc 1 86 3 view .LVU116
  93:Core/Src/main.c **** 
ARM GAS  C:\Users\timol\AppData\Local\Temp\ccQ1g8Om.s 			page 18


 462              		.loc 1 93 3 view .LVU117
 463 0002 FFF7FEFF 		bl	HAL_Init
 464              	.LVL15:
 100:Core/Src/main.c **** 
 465              		.loc 1 100 3 view .LVU118
 466 0006 FFF7FEFF 		bl	SystemClock_Config
 467              	.LVL16:
 107:Core/Src/main.c ****   MX_USART2_UART_Init();
 468              		.loc 1 107 3 view .LVU119
 469 000a FFF7FEFF 		bl	MX_GPIO_Init
 470              	.LVL17:
 108:Core/Src/main.c ****   MX_I2C1_Init();
 471              		.loc 1 108 3 view .LVU120
 472 000e FFF7FEFF 		bl	MX_USART2_UART_Init
 473              	.LVL18:
 109:Core/Src/main.c ****   /* USER CODE BEGIN 2 */
 474              		.loc 1 109 3 view .LVU121
 475 0012 FFF7FEFF 		bl	MX_I2C1_Init
 476              	.LVL19:
 113:Core/Src/main.c ****     myprintf("Init failed!");
 477              		.loc 1 113 3 view .LVU122
 113:Core/Src/main.c ****     myprintf("Init failed!");
 478              		.loc 1 113 9 is_stmt 0 view .LVU123
 479 0016 02E0     		b	.L30
 480              	.L31:
 114:Core/Src/main.c ****   }
 481              		.loc 1 114 5 is_stmt 1 view .LVU124
 482 0018 0F48     		ldr	r0, .L34
 483 001a FFF7FEFF 		bl	myprintf
 484              	.LVL20:
 485              	.L30:
 113:Core/Src/main.c ****     myprintf("Init failed!");
 486              		.loc 1 113 10 view .LVU125
 113:Core/Src/main.c ****     myprintf("Init failed!");
 487              		.loc 1 113 11 is_stmt 0 view .LVU126
 488 001e 0F48     		ldr	r0, .L34+4
 489 0020 FFF7FEFF 		bl	MS5837_init
 490              	.LVL21:
 113:Core/Src/main.c ****     myprintf("Init failed!");
 491              		.loc 1 113 10 view .LVU127
 492 0024 0028     		cmp	r0, #0
 493 0026 F7D0     		beq	.L31
 116:Core/Src/main.c ****   /* USER CODE END 2 */
 494              		.loc 1 116 3 is_stmt 1 view .LVU128
 495 0028 0D48     		ldr	r0, .L34+8
 496 002a FFF7FEFF 		bl	myprintf
 497              	.LVL22:
 498              	.L32:
 121:Core/Src/main.c ****   {
 499              		.loc 1 121 3 discriminator 1 view .LVU129
 123:Core/Src/main.c ****     altitude_float = altitude();
 500              		.loc 1 123 5 discriminator 1 view .LVU130
 501 002e 0B48     		ldr	r0, .L34+4
 502 0030 FFF7FEFF 		bl	MS5837_read
 503              	.LVL23:
 124:Core/Src/main.c ****     depth_float = depth();
 504              		.loc 1 124 5 discriminator 1 view .LVU131
ARM GAS  C:\Users\timol\AppData\Local\Temp\ccQ1g8Om.s 			page 19


 124:Core/Src/main.c ****     depth_float = depth();
 505              		.loc 1 124 22 is_stmt 0 discriminator 1 view .LVU132
 506 0034 FFF7FEFF 		bl	altitude
 507              	.LVL24:
 508 0038 0546     		mov	r5, r0
 509              	.LVL25:
 125:Core/Src/main.c **** 
 510              		.loc 1 125 5 is_stmt 1 discriminator 1 view .LVU133
 125:Core/Src/main.c **** 
 511              		.loc 1 125 19 is_stmt 0 discriminator 1 view .LVU134
 512 003a FFF7FEFF 		bl	depth
 513              	.LVL26:
 128:Core/Src/main.c ****     /* USER CODE END WHILE */
 514              		.loc 1 128 5 is_stmt 1 discriminator 1 view .LVU135
 515 003e FFF7FEFF 		bl	__aeabi_f2iz
 516              	.LVL27:
 128:Core/Src/main.c ****     /* USER CODE END WHILE */
 517              		.loc 1 128 5 is_stmt 0 discriminator 1 view .LVU136
 518 0042 0446     		mov	r4, r0
 519 0044 2846     		mov	r0, r5
 520 0046 FFF7FEFF 		bl	__aeabi_f2iz
 521              	.LVL28:
 522 004a 0146     		mov	r1, r0
 523 004c 2246     		mov	r2, r4
 524 004e 0548     		ldr	r0, .L34+12
 525 0050 FFF7FEFF 		bl	myprintf
 526              	.LVL29:
 121:Core/Src/main.c ****   {
 527              		.loc 1 121 9 is_stmt 1 discriminator 1 view .LVU137
 528 0054 EBE7     		b	.L32
 529              	.L35:
 530 0056 00BF     		.align	2
 531              	.L34:
 532 0058 00000000 		.word	.LC0
 533 005c 00000000 		.word	.LANCHOR2
 534 0060 10000000 		.word	.LC1
 535 0064 28000000 		.word	.LC2
 536              		.cfi_endproc
 537              	.LFE69:
 539              		.global	huart2
 540              		.global	hi2c1
 541              		.section	.bss.buffer.0,"aw",%nobits
 542              		.align	2
 543              		.set	.LANCHOR0,. + 0
 546              	buffer.0:
 547 0000 00000000 		.space	256
 547      00000000 
 547      00000000 
 547      00000000 
 547      00000000 
 548              		.section	.bss.hi2c1,"aw",%nobits
 549              		.align	2
 550              		.set	.LANCHOR2,. + 0
 553              	hi2c1:
 554 0000 00000000 		.space	84
 554      00000000 
 554      00000000 
ARM GAS  C:\Users\timol\AppData\Local\Temp\ccQ1g8Om.s 			page 20


 554      00000000 
 554      00000000 
 555              		.section	.bss.huart2,"aw",%nobits
 556              		.align	2
 557              		.set	.LANCHOR1,. + 0
 560              	huart2:
 561 0000 00000000 		.space	68
 561      00000000 
 561      00000000 
 561      00000000 
 561      00000000 
 562              		.text
 563              	.Letext0:
 564              		.file 3 "c:\\users\\timol\\appdata\\roaming\\code\\user\\globalstorage\\bmd.stm32-for-vscode\\@xpa
 565              		.file 4 "c:\\users\\timol\\appdata\\roaming\\code\\user\\globalstorage\\bmd.stm32-for-vscode\\@xpa
 566              		.file 5 "Drivers/CMSIS/Device/ST/STM32F1xx/Include/stm32f103xb.h"
 567              		.file 6 "c:\\users\\timol\\appdata\\roaming\\code\\user\\globalstorage\\bmd.stm32-for-vscode\\@xpa
 568              		.file 7 "Drivers/STM32F1xx_HAL_Driver/Inc/stm32f1xx_hal_def.h"
 569              		.file 8 "Drivers/STM32F1xx_HAL_Driver/Inc/stm32f1xx_hal_rcc.h"
 570              		.file 9 "Drivers/STM32F1xx_HAL_Driver/Inc/stm32f1xx_hal_rcc_ex.h"
 571              		.file 10 "Drivers/STM32F1xx_HAL_Driver/Inc/stm32f1xx_hal_dma.h"
 572              		.file 11 "Drivers/STM32F1xx_HAL_Driver/Inc/stm32f1xx_hal_i2c.h"
 573              		.file 12 "Drivers/STM32F1xx_HAL_Driver/Inc/stm32f1xx_hal_uart.h"
 574              		.file 13 "c:\\users\\timol\\appdata\\roaming\\code\\user\\globalstorage\\bmd.stm32-for-vscode\\@xp
 575              		.file 14 "c:\\users\\timol\\appdata\\roaming\\code\\user\\globalstorage\\bmd.stm32-for-vscode\\@xp
 576              		.file 15 "Drivers/STM32_MS5837/MS5837.h"
 577              		.file 16 "c:\\users\\timol\\appdata\\roaming\\code\\user\\globalstorage\\bmd.stm32-for-vscode\\@xp
 578              		.file 17 "<built-in>"
 579              		.file 18 "Drivers/STM32F1xx_HAL_Driver/Inc/stm32f1xx_hal.h"
ARM GAS  C:\Users\timol\AppData\Local\Temp\ccQ1g8Om.s 			page 21

