ARM GAS  C:\Users\timol\AppData\Local\Temp\ccGLJLqC.s 			page 1


   1              		.cpu cortex-m3
   2              		.arch armv7-m
   3              		.fpu softvfp
   4              		.eabi_attribute 20, 1
   5              		.eabi_attribute 21, 1
   6              		.eabi_attribute 23, 3
   7              		.eabi_attribute 24, 1
   8              		.eabi_attribute 25, 1
   9              		.eabi_attribute 26, 1
  10              		.eabi_attribute 30, 1
  11              		.eabi_attribute 34, 1
  12              		.eabi_attribute 18, 4
  13              		.file	"stm32f1xx_hal_msp.c"
  14              		.text
  15              	.Ltext0:
  16              		.cfi_sections	.debug_frame
  17              		.section	.text.HAL_MspInit,"ax",%progbits
  18              		.align	1
  19              		.global	HAL_MspInit
  20              		.syntax unified
  21              		.thumb
  22              		.thumb_func
  24              	HAL_MspInit:
  25              	.LFB65:
  26              		.file 1 "Core/Src/stm32f1xx_hal_msp.c"
   1:Core/Src/stm32f1xx_hal_msp.c **** /* USER CODE BEGIN Header */
   2:Core/Src/stm32f1xx_hal_msp.c **** /**
   3:Core/Src/stm32f1xx_hal_msp.c ****   ******************************************************************************
   4:Core/Src/stm32f1xx_hal_msp.c ****   * @file         stm32f1xx_hal_msp.c
   5:Core/Src/stm32f1xx_hal_msp.c ****   * @brief        This file provides code for the MSP Initialization
   6:Core/Src/stm32f1xx_hal_msp.c ****   *               and de-Initialization codes.
   7:Core/Src/stm32f1xx_hal_msp.c ****   ******************************************************************************
   8:Core/Src/stm32f1xx_hal_msp.c ****   * @attention
   9:Core/Src/stm32f1xx_hal_msp.c ****   *
  10:Core/Src/stm32f1xx_hal_msp.c ****   * <h2><center>&copy; Copyright (c) 2022 STMicroelectronics.
  11:Core/Src/stm32f1xx_hal_msp.c ****   * All rights reserved.</center></h2>
  12:Core/Src/stm32f1xx_hal_msp.c ****   *
  13:Core/Src/stm32f1xx_hal_msp.c ****   * This software component is licensed by ST under BSD 3-Clause license,
  14:Core/Src/stm32f1xx_hal_msp.c ****   * the "License"; You may not use this file except in compliance with the
  15:Core/Src/stm32f1xx_hal_msp.c ****   * License. You may obtain a copy of the License at:
  16:Core/Src/stm32f1xx_hal_msp.c ****   *                        opensource.org/licenses/BSD-3-Clause
  17:Core/Src/stm32f1xx_hal_msp.c ****   *
  18:Core/Src/stm32f1xx_hal_msp.c ****   ******************************************************************************
  19:Core/Src/stm32f1xx_hal_msp.c ****   */
  20:Core/Src/stm32f1xx_hal_msp.c **** /* USER CODE END Header */
  21:Core/Src/stm32f1xx_hal_msp.c **** 
  22:Core/Src/stm32f1xx_hal_msp.c **** /* Includes ------------------------------------------------------------------*/
  23:Core/Src/stm32f1xx_hal_msp.c **** #include "main.h"
  24:Core/Src/stm32f1xx_hal_msp.c **** /* USER CODE BEGIN Includes */
  25:Core/Src/stm32f1xx_hal_msp.c **** 
  26:Core/Src/stm32f1xx_hal_msp.c **** /* USER CODE END Includes */
  27:Core/Src/stm32f1xx_hal_msp.c **** 
  28:Core/Src/stm32f1xx_hal_msp.c **** /* Private typedef -----------------------------------------------------------*/
  29:Core/Src/stm32f1xx_hal_msp.c **** /* USER CODE BEGIN TD */
  30:Core/Src/stm32f1xx_hal_msp.c **** 
  31:Core/Src/stm32f1xx_hal_msp.c **** /* USER CODE END TD */
  32:Core/Src/stm32f1xx_hal_msp.c **** 
ARM GAS  C:\Users\timol\AppData\Local\Temp\ccGLJLqC.s 			page 2


  33:Core/Src/stm32f1xx_hal_msp.c **** /* Private define ------------------------------------------------------------*/
  34:Core/Src/stm32f1xx_hal_msp.c **** /* USER CODE BEGIN Define */
  35:Core/Src/stm32f1xx_hal_msp.c **** 
  36:Core/Src/stm32f1xx_hal_msp.c **** /* USER CODE END Define */
  37:Core/Src/stm32f1xx_hal_msp.c **** 
  38:Core/Src/stm32f1xx_hal_msp.c **** /* Private macro -------------------------------------------------------------*/
  39:Core/Src/stm32f1xx_hal_msp.c **** /* USER CODE BEGIN Macro */
  40:Core/Src/stm32f1xx_hal_msp.c **** 
  41:Core/Src/stm32f1xx_hal_msp.c **** /* USER CODE END Macro */
  42:Core/Src/stm32f1xx_hal_msp.c **** 
  43:Core/Src/stm32f1xx_hal_msp.c **** /* Private variables ---------------------------------------------------------*/
  44:Core/Src/stm32f1xx_hal_msp.c **** /* USER CODE BEGIN PV */
  45:Core/Src/stm32f1xx_hal_msp.c **** 
  46:Core/Src/stm32f1xx_hal_msp.c **** /* USER CODE END PV */
  47:Core/Src/stm32f1xx_hal_msp.c **** 
  48:Core/Src/stm32f1xx_hal_msp.c **** /* Private function prototypes -----------------------------------------------*/
  49:Core/Src/stm32f1xx_hal_msp.c **** /* USER CODE BEGIN PFP */
  50:Core/Src/stm32f1xx_hal_msp.c **** 
  51:Core/Src/stm32f1xx_hal_msp.c **** /* USER CODE END PFP */
  52:Core/Src/stm32f1xx_hal_msp.c **** 
  53:Core/Src/stm32f1xx_hal_msp.c **** /* External functions --------------------------------------------------------*/
  54:Core/Src/stm32f1xx_hal_msp.c **** /* USER CODE BEGIN ExternalFunctions */
  55:Core/Src/stm32f1xx_hal_msp.c **** 
  56:Core/Src/stm32f1xx_hal_msp.c **** /* USER CODE END ExternalFunctions */
  57:Core/Src/stm32f1xx_hal_msp.c **** 
  58:Core/Src/stm32f1xx_hal_msp.c **** /* USER CODE BEGIN 0 */
  59:Core/Src/stm32f1xx_hal_msp.c **** 
  60:Core/Src/stm32f1xx_hal_msp.c **** /* USER CODE END 0 */
  61:Core/Src/stm32f1xx_hal_msp.c **** /**
  62:Core/Src/stm32f1xx_hal_msp.c ****   * Initializes the Global MSP.
  63:Core/Src/stm32f1xx_hal_msp.c ****   */
  64:Core/Src/stm32f1xx_hal_msp.c **** void HAL_MspInit(void)
  65:Core/Src/stm32f1xx_hal_msp.c **** {
  27              		.loc 1 65 1 view -0
  28              		.cfi_startproc
  29              		@ args = 0, pretend = 0, frame = 8
  30              		@ frame_needed = 0, uses_anonymous_args = 0
  31              		@ link register save eliminated.
  32 0000 82B0     		sub	sp, sp, #8
  33              		.cfi_def_cfa_offset 8
  66:Core/Src/stm32f1xx_hal_msp.c ****   /* USER CODE BEGIN MspInit 0 */
  67:Core/Src/stm32f1xx_hal_msp.c **** 
  68:Core/Src/stm32f1xx_hal_msp.c ****   /* USER CODE END MspInit 0 */
  69:Core/Src/stm32f1xx_hal_msp.c **** 
  70:Core/Src/stm32f1xx_hal_msp.c ****   __HAL_RCC_AFIO_CLK_ENABLE();
  34              		.loc 1 70 3 view .LVU1
  35              	.LBB2:
  36              		.loc 1 70 3 view .LVU2
  37              		.loc 1 70 3 view .LVU3
  38 0002 0E4B     		ldr	r3, .L3
  39 0004 9A69     		ldr	r2, [r3, #24]
  40 0006 42F00102 		orr	r2, r2, #1
  41 000a 9A61     		str	r2, [r3, #24]
  42              		.loc 1 70 3 view .LVU4
  43 000c 9A69     		ldr	r2, [r3, #24]
  44 000e 02F00102 		and	r2, r2, #1
  45 0012 0092     		str	r2, [sp]
ARM GAS  C:\Users\timol\AppData\Local\Temp\ccGLJLqC.s 			page 3


  46              		.loc 1 70 3 view .LVU5
  47 0014 009A     		ldr	r2, [sp]
  48              	.LBE2:
  49              		.loc 1 70 3 view .LVU6
  71:Core/Src/stm32f1xx_hal_msp.c ****   __HAL_RCC_PWR_CLK_ENABLE();
  50              		.loc 1 71 3 view .LVU7
  51              	.LBB3:
  52              		.loc 1 71 3 view .LVU8
  53              		.loc 1 71 3 view .LVU9
  54 0016 DA69     		ldr	r2, [r3, #28]
  55 0018 42F08052 		orr	r2, r2, #268435456
  56 001c DA61     		str	r2, [r3, #28]
  57              		.loc 1 71 3 view .LVU10
  58 001e DB69     		ldr	r3, [r3, #28]
  59 0020 03F08053 		and	r3, r3, #268435456
  60 0024 0193     		str	r3, [sp, #4]
  61              		.loc 1 71 3 view .LVU11
  62 0026 019B     		ldr	r3, [sp, #4]
  63              	.LBE3:
  64              		.loc 1 71 3 view .LVU12
  72:Core/Src/stm32f1xx_hal_msp.c **** 
  73:Core/Src/stm32f1xx_hal_msp.c ****   /* System interrupt init*/
  74:Core/Src/stm32f1xx_hal_msp.c **** 
  75:Core/Src/stm32f1xx_hal_msp.c ****   /** NOJTAG: JTAG-DP Disabled and SW-DP Enabled
  76:Core/Src/stm32f1xx_hal_msp.c ****   */
  77:Core/Src/stm32f1xx_hal_msp.c ****   __HAL_AFIO_REMAP_SWJ_NOJTAG();
  65              		.loc 1 77 3 view .LVU13
  66              	.LBB4:
  67              		.loc 1 77 3 view .LVU14
  68 0028 054A     		ldr	r2, .L3+4
  69 002a 5368     		ldr	r3, [r2, #4]
  70              	.LVL0:
  71              		.loc 1 77 3 view .LVU15
  72 002c 23F0E063 		bic	r3, r3, #117440512
  73              	.LVL1:
  74              		.loc 1 77 3 view .LVU16
  75 0030 43F00073 		orr	r3, r3, #33554432
  76              	.LVL2:
  77              		.loc 1 77 3 view .LVU17
  78 0034 5360     		str	r3, [r2, #4]
  79              	.LBE4:
  80              		.loc 1 77 3 view .LVU18
  78:Core/Src/stm32f1xx_hal_msp.c **** 
  79:Core/Src/stm32f1xx_hal_msp.c ****   /* USER CODE BEGIN MspInit 1 */
  80:Core/Src/stm32f1xx_hal_msp.c **** 
  81:Core/Src/stm32f1xx_hal_msp.c ****   /* USER CODE END MspInit 1 */
  82:Core/Src/stm32f1xx_hal_msp.c **** }
  81              		.loc 1 82 1 is_stmt 0 view .LVU19
  82 0036 02B0     		add	sp, sp, #8
  83              		.cfi_def_cfa_offset 0
  84              		@ sp needed
  85 0038 7047     		bx	lr
  86              	.L4:
  87 003a 00BF     		.align	2
  88              	.L3:
  89 003c 00100240 		.word	1073876992
  90 0040 00000140 		.word	1073807360
ARM GAS  C:\Users\timol\AppData\Local\Temp\ccGLJLqC.s 			page 4


  91              		.cfi_endproc
  92              	.LFE65:
  94              		.section	.text.HAL_I2C_MspInit,"ax",%progbits
  95              		.align	1
  96              		.global	HAL_I2C_MspInit
  97              		.syntax unified
  98              		.thumb
  99              		.thumb_func
 101              	HAL_I2C_MspInit:
 102              	.LVL3:
 103              	.LFB66:
  83:Core/Src/stm32f1xx_hal_msp.c **** 
  84:Core/Src/stm32f1xx_hal_msp.c **** /**
  85:Core/Src/stm32f1xx_hal_msp.c **** * @brief I2C MSP Initialization
  86:Core/Src/stm32f1xx_hal_msp.c **** * This function configures the hardware resources used in this example
  87:Core/Src/stm32f1xx_hal_msp.c **** * @param hi2c: I2C handle pointer
  88:Core/Src/stm32f1xx_hal_msp.c **** * @retval None
  89:Core/Src/stm32f1xx_hal_msp.c **** */
  90:Core/Src/stm32f1xx_hal_msp.c **** void HAL_I2C_MspInit(I2C_HandleTypeDef* hi2c)
  91:Core/Src/stm32f1xx_hal_msp.c **** {
 104              		.loc 1 91 1 is_stmt 1 view -0
 105              		.cfi_startproc
 106              		@ args = 0, pretend = 0, frame = 24
 107              		@ frame_needed = 0, uses_anonymous_args = 0
 108              		.loc 1 91 1 is_stmt 0 view .LVU21
 109 0000 10B5     		push	{r4, lr}
 110              		.cfi_def_cfa_offset 8
 111              		.cfi_offset 4, -8
 112              		.cfi_offset 14, -4
 113 0002 86B0     		sub	sp, sp, #24
 114              		.cfi_def_cfa_offset 32
  92:Core/Src/stm32f1xx_hal_msp.c ****   GPIO_InitTypeDef GPIO_InitStruct = {0};
 115              		.loc 1 92 3 is_stmt 1 view .LVU22
 116              		.loc 1 92 20 is_stmt 0 view .LVU23
 117 0004 0023     		movs	r3, #0
 118 0006 0293     		str	r3, [sp, #8]
 119 0008 0393     		str	r3, [sp, #12]
 120 000a 0493     		str	r3, [sp, #16]
 121 000c 0593     		str	r3, [sp, #20]
  93:Core/Src/stm32f1xx_hal_msp.c ****   if(hi2c->Instance==I2C1)
 122              		.loc 1 93 3 is_stmt 1 view .LVU24
 123              		.loc 1 93 10 is_stmt 0 view .LVU25
 124 000e 0268     		ldr	r2, [r0]
 125              		.loc 1 93 5 view .LVU26
 126 0010 154B     		ldr	r3, .L9
 127 0012 9A42     		cmp	r2, r3
 128 0014 01D0     		beq	.L8
 129              	.LVL4:
 130              	.L5:
  94:Core/Src/stm32f1xx_hal_msp.c ****   {
  95:Core/Src/stm32f1xx_hal_msp.c ****   /* USER CODE BEGIN I2C1_MspInit 0 */
  96:Core/Src/stm32f1xx_hal_msp.c **** 
  97:Core/Src/stm32f1xx_hal_msp.c ****   /* USER CODE END I2C1_MspInit 0 */
  98:Core/Src/stm32f1xx_hal_msp.c **** 
  99:Core/Src/stm32f1xx_hal_msp.c ****     __HAL_RCC_GPIOB_CLK_ENABLE();
 100:Core/Src/stm32f1xx_hal_msp.c ****     /**I2C1 GPIO Configuration
 101:Core/Src/stm32f1xx_hal_msp.c ****     PB8     ------> I2C1_SCL
ARM GAS  C:\Users\timol\AppData\Local\Temp\ccGLJLqC.s 			page 5


 102:Core/Src/stm32f1xx_hal_msp.c ****     PB9     ------> I2C1_SDA
 103:Core/Src/stm32f1xx_hal_msp.c ****     */
 104:Core/Src/stm32f1xx_hal_msp.c ****     GPIO_InitStruct.Pin = GPIO_PIN_8|GPIO_PIN_9;
 105:Core/Src/stm32f1xx_hal_msp.c ****     GPIO_InitStruct.Mode = GPIO_MODE_AF_OD;
 106:Core/Src/stm32f1xx_hal_msp.c ****     GPIO_InitStruct.Speed = GPIO_SPEED_FREQ_HIGH;
 107:Core/Src/stm32f1xx_hal_msp.c ****     HAL_GPIO_Init(GPIOB, &GPIO_InitStruct);
 108:Core/Src/stm32f1xx_hal_msp.c **** 
 109:Core/Src/stm32f1xx_hal_msp.c ****     __HAL_AFIO_REMAP_I2C1_ENABLE();
 110:Core/Src/stm32f1xx_hal_msp.c **** 
 111:Core/Src/stm32f1xx_hal_msp.c ****     /* Peripheral clock enable */
 112:Core/Src/stm32f1xx_hal_msp.c ****     __HAL_RCC_I2C1_CLK_ENABLE();
 113:Core/Src/stm32f1xx_hal_msp.c ****   /* USER CODE BEGIN I2C1_MspInit 1 */
 114:Core/Src/stm32f1xx_hal_msp.c **** 
 115:Core/Src/stm32f1xx_hal_msp.c ****   /* USER CODE END I2C1_MspInit 1 */
 116:Core/Src/stm32f1xx_hal_msp.c ****   }
 117:Core/Src/stm32f1xx_hal_msp.c **** 
 118:Core/Src/stm32f1xx_hal_msp.c **** }
 131              		.loc 1 118 1 view .LVU27
 132 0016 06B0     		add	sp, sp, #24
 133              		.cfi_remember_state
 134              		.cfi_def_cfa_offset 8
 135              		@ sp needed
 136 0018 10BD     		pop	{r4, pc}
 137              	.LVL5:
 138              	.L8:
 139              		.cfi_restore_state
  99:Core/Src/stm32f1xx_hal_msp.c ****     /**I2C1 GPIO Configuration
 140              		.loc 1 99 5 is_stmt 1 view .LVU28
 141              	.LBB5:
  99:Core/Src/stm32f1xx_hal_msp.c ****     /**I2C1 GPIO Configuration
 142              		.loc 1 99 5 view .LVU29
  99:Core/Src/stm32f1xx_hal_msp.c ****     /**I2C1 GPIO Configuration
 143              		.loc 1 99 5 view .LVU30
 144 001a 144C     		ldr	r4, .L9+4
 145 001c A369     		ldr	r3, [r4, #24]
 146 001e 43F00803 		orr	r3, r3, #8
 147 0022 A361     		str	r3, [r4, #24]
  99:Core/Src/stm32f1xx_hal_msp.c ****     /**I2C1 GPIO Configuration
 148              		.loc 1 99 5 view .LVU31
 149 0024 A369     		ldr	r3, [r4, #24]
 150 0026 03F00803 		and	r3, r3, #8
 151 002a 0093     		str	r3, [sp]
  99:Core/Src/stm32f1xx_hal_msp.c ****     /**I2C1 GPIO Configuration
 152              		.loc 1 99 5 view .LVU32
 153 002c 009B     		ldr	r3, [sp]
 154              	.LBE5:
  99:Core/Src/stm32f1xx_hal_msp.c ****     /**I2C1 GPIO Configuration
 155              		.loc 1 99 5 view .LVU33
 104:Core/Src/stm32f1xx_hal_msp.c ****     GPIO_InitStruct.Mode = GPIO_MODE_AF_OD;
 156              		.loc 1 104 5 view .LVU34
 104:Core/Src/stm32f1xx_hal_msp.c ****     GPIO_InitStruct.Mode = GPIO_MODE_AF_OD;
 157              		.loc 1 104 25 is_stmt 0 view .LVU35
 158 002e 4FF44073 		mov	r3, #768
 159 0032 0293     		str	r3, [sp, #8]
 105:Core/Src/stm32f1xx_hal_msp.c ****     GPIO_InitStruct.Speed = GPIO_SPEED_FREQ_HIGH;
 160              		.loc 1 105 5 is_stmt 1 view .LVU36
 105:Core/Src/stm32f1xx_hal_msp.c ****     GPIO_InitStruct.Speed = GPIO_SPEED_FREQ_HIGH;
ARM GAS  C:\Users\timol\AppData\Local\Temp\ccGLJLqC.s 			page 6


 161              		.loc 1 105 26 is_stmt 0 view .LVU37
 162 0034 1223     		movs	r3, #18
 163 0036 0393     		str	r3, [sp, #12]
 106:Core/Src/stm32f1xx_hal_msp.c ****     HAL_GPIO_Init(GPIOB, &GPIO_InitStruct);
 164              		.loc 1 106 5 is_stmt 1 view .LVU38
 106:Core/Src/stm32f1xx_hal_msp.c ****     HAL_GPIO_Init(GPIOB, &GPIO_InitStruct);
 165              		.loc 1 106 27 is_stmt 0 view .LVU39
 166 0038 0323     		movs	r3, #3
 167 003a 0593     		str	r3, [sp, #20]
 107:Core/Src/stm32f1xx_hal_msp.c **** 
 168              		.loc 1 107 5 is_stmt 1 view .LVU40
 169 003c 02A9     		add	r1, sp, #8
 170 003e 0C48     		ldr	r0, .L9+8
 171              	.LVL6:
 107:Core/Src/stm32f1xx_hal_msp.c **** 
 172              		.loc 1 107 5 is_stmt 0 view .LVU41
 173 0040 FFF7FEFF 		bl	HAL_GPIO_Init
 174              	.LVL7:
 109:Core/Src/stm32f1xx_hal_msp.c **** 
 175              		.loc 1 109 5 is_stmt 1 view .LVU42
 176              	.LBB6:
 109:Core/Src/stm32f1xx_hal_msp.c **** 
 177              		.loc 1 109 5 view .LVU43
 178 0044 0B4A     		ldr	r2, .L9+12
 179 0046 5368     		ldr	r3, [r2, #4]
 180              	.LVL8:
 109:Core/Src/stm32f1xx_hal_msp.c **** 
 181              		.loc 1 109 5 view .LVU44
 109:Core/Src/stm32f1xx_hal_msp.c **** 
 182              		.loc 1 109 5 view .LVU45
 183 0048 43F0E063 		orr	r3, r3, #117440512
 184              	.LVL9:
 109:Core/Src/stm32f1xx_hal_msp.c **** 
 185              		.loc 1 109 5 is_stmt 0 view .LVU46
 186 004c 43F00203 		orr	r3, r3, #2
 187              	.LVL10:
 109:Core/Src/stm32f1xx_hal_msp.c **** 
 188              		.loc 1 109 5 is_stmt 1 view .LVU47
 189 0050 5360     		str	r3, [r2, #4]
 190              	.LBE6:
 109:Core/Src/stm32f1xx_hal_msp.c **** 
 191              		.loc 1 109 5 view .LVU48
 112:Core/Src/stm32f1xx_hal_msp.c ****   /* USER CODE BEGIN I2C1_MspInit 1 */
 192              		.loc 1 112 5 view .LVU49
 193              	.LBB7:
 112:Core/Src/stm32f1xx_hal_msp.c ****   /* USER CODE BEGIN I2C1_MspInit 1 */
 194              		.loc 1 112 5 view .LVU50
 112:Core/Src/stm32f1xx_hal_msp.c ****   /* USER CODE BEGIN I2C1_MspInit 1 */
 195              		.loc 1 112 5 view .LVU51
 196 0052 E369     		ldr	r3, [r4, #28]
 197              	.LVL11:
 112:Core/Src/stm32f1xx_hal_msp.c ****   /* USER CODE BEGIN I2C1_MspInit 1 */
 198              		.loc 1 112 5 is_stmt 0 view .LVU52
 199 0054 43F40013 		orr	r3, r3, #2097152
 200 0058 E361     		str	r3, [r4, #28]
 201              	.LVL12:
 112:Core/Src/stm32f1xx_hal_msp.c ****   /* USER CODE BEGIN I2C1_MspInit 1 */
ARM GAS  C:\Users\timol\AppData\Local\Temp\ccGLJLqC.s 			page 7


 202              		.loc 1 112 5 is_stmt 1 view .LVU53
 203 005a E369     		ldr	r3, [r4, #28]
 204 005c 03F40013 		and	r3, r3, #2097152
 205 0060 0193     		str	r3, [sp, #4]
 112:Core/Src/stm32f1xx_hal_msp.c ****   /* USER CODE BEGIN I2C1_MspInit 1 */
 206              		.loc 1 112 5 view .LVU54
 207 0062 019B     		ldr	r3, [sp, #4]
 208              	.LBE7:
 112:Core/Src/stm32f1xx_hal_msp.c ****   /* USER CODE BEGIN I2C1_MspInit 1 */
 209              		.loc 1 112 5 view .LVU55
 210              		.loc 1 118 1 is_stmt 0 view .LVU56
 211 0064 D7E7     		b	.L5
 212              	.L10:
 213 0066 00BF     		.align	2
 214              	.L9:
 215 0068 00540040 		.word	1073763328
 216 006c 00100240 		.word	1073876992
 217 0070 000C0140 		.word	1073810432
 218 0074 00000140 		.word	1073807360
 219              		.cfi_endproc
 220              	.LFE66:
 222              		.section	.text.HAL_I2C_MspDeInit,"ax",%progbits
 223              		.align	1
 224              		.global	HAL_I2C_MspDeInit
 225              		.syntax unified
 226              		.thumb
 227              		.thumb_func
 229              	HAL_I2C_MspDeInit:
 230              	.LVL13:
 231              	.LFB67:
 119:Core/Src/stm32f1xx_hal_msp.c **** 
 120:Core/Src/stm32f1xx_hal_msp.c **** /**
 121:Core/Src/stm32f1xx_hal_msp.c **** * @brief I2C MSP De-Initialization
 122:Core/Src/stm32f1xx_hal_msp.c **** * This function freeze the hardware resources used in this example
 123:Core/Src/stm32f1xx_hal_msp.c **** * @param hi2c: I2C handle pointer
 124:Core/Src/stm32f1xx_hal_msp.c **** * @retval None
 125:Core/Src/stm32f1xx_hal_msp.c **** */
 126:Core/Src/stm32f1xx_hal_msp.c **** void HAL_I2C_MspDeInit(I2C_HandleTypeDef* hi2c)
 127:Core/Src/stm32f1xx_hal_msp.c **** {
 232              		.loc 1 127 1 is_stmt 1 view -0
 233              		.cfi_startproc
 234              		@ args = 0, pretend = 0, frame = 0
 235              		@ frame_needed = 0, uses_anonymous_args = 0
 128:Core/Src/stm32f1xx_hal_msp.c ****   if(hi2c->Instance==I2C1)
 236              		.loc 1 128 3 view .LVU58
 237              		.loc 1 128 10 is_stmt 0 view .LVU59
 238 0000 0268     		ldr	r2, [r0]
 239              		.loc 1 128 5 view .LVU60
 240 0002 0B4B     		ldr	r3, .L18
 241 0004 9A42     		cmp	r2, r3
 242 0006 00D0     		beq	.L17
 243 0008 7047     		bx	lr
 244              	.L17:
 127:Core/Src/stm32f1xx_hal_msp.c ****   if(hi2c->Instance==I2C1)
 245              		.loc 1 127 1 view .LVU61
 246 000a 10B5     		push	{r4, lr}
 247              		.cfi_def_cfa_offset 8
ARM GAS  C:\Users\timol\AppData\Local\Temp\ccGLJLqC.s 			page 8


 248              		.cfi_offset 4, -8
 249              		.cfi_offset 14, -4
 129:Core/Src/stm32f1xx_hal_msp.c ****   {
 130:Core/Src/stm32f1xx_hal_msp.c ****   /* USER CODE BEGIN I2C1_MspDeInit 0 */
 131:Core/Src/stm32f1xx_hal_msp.c **** 
 132:Core/Src/stm32f1xx_hal_msp.c ****   /* USER CODE END I2C1_MspDeInit 0 */
 133:Core/Src/stm32f1xx_hal_msp.c ****     /* Peripheral clock disable */
 134:Core/Src/stm32f1xx_hal_msp.c ****     __HAL_RCC_I2C1_CLK_DISABLE();
 250              		.loc 1 134 5 is_stmt 1 view .LVU62
 251 000c 094A     		ldr	r2, .L18+4
 252 000e D369     		ldr	r3, [r2, #28]
 253 0010 23F40013 		bic	r3, r3, #2097152
 254 0014 D361     		str	r3, [r2, #28]
 135:Core/Src/stm32f1xx_hal_msp.c **** 
 136:Core/Src/stm32f1xx_hal_msp.c ****     /**I2C1 GPIO Configuration
 137:Core/Src/stm32f1xx_hal_msp.c ****     PB8     ------> I2C1_SCL
 138:Core/Src/stm32f1xx_hal_msp.c ****     PB9     ------> I2C1_SDA
 139:Core/Src/stm32f1xx_hal_msp.c ****     */
 140:Core/Src/stm32f1xx_hal_msp.c ****     HAL_GPIO_DeInit(GPIOB, GPIO_PIN_8);
 255              		.loc 1 140 5 view .LVU63
 256 0016 084C     		ldr	r4, .L18+8
 257 0018 4FF48071 		mov	r1, #256
 258 001c 2046     		mov	r0, r4
 259              	.LVL14:
 260              		.loc 1 140 5 is_stmt 0 view .LVU64
 261 001e FFF7FEFF 		bl	HAL_GPIO_DeInit
 262              	.LVL15:
 141:Core/Src/stm32f1xx_hal_msp.c **** 
 142:Core/Src/stm32f1xx_hal_msp.c ****     HAL_GPIO_DeInit(GPIOB, GPIO_PIN_9);
 263              		.loc 1 142 5 is_stmt 1 view .LVU65
 264 0022 4FF40071 		mov	r1, #512
 265 0026 2046     		mov	r0, r4
 266 0028 FFF7FEFF 		bl	HAL_GPIO_DeInit
 267              	.LVL16:
 143:Core/Src/stm32f1xx_hal_msp.c **** 
 144:Core/Src/stm32f1xx_hal_msp.c ****   /* USER CODE BEGIN I2C1_MspDeInit 1 */
 145:Core/Src/stm32f1xx_hal_msp.c **** 
 146:Core/Src/stm32f1xx_hal_msp.c ****   /* USER CODE END I2C1_MspDeInit 1 */
 147:Core/Src/stm32f1xx_hal_msp.c ****   }
 148:Core/Src/stm32f1xx_hal_msp.c **** 
 149:Core/Src/stm32f1xx_hal_msp.c **** }
 268              		.loc 1 149 1 is_stmt 0 view .LVU66
 269 002c 10BD     		pop	{r4, pc}
 270              	.L19:
 271 002e 00BF     		.align	2
 272              	.L18:
 273 0030 00540040 		.word	1073763328
 274 0034 00100240 		.word	1073876992
 275 0038 000C0140 		.word	1073810432
 276              		.cfi_endproc
 277              	.LFE67:
 279              		.section	.text.HAL_SPI_MspInit,"ax",%progbits
 280              		.align	1
 281              		.global	HAL_SPI_MspInit
 282              		.syntax unified
 283              		.thumb
 284              		.thumb_func
ARM GAS  C:\Users\timol\AppData\Local\Temp\ccGLJLqC.s 			page 9


 286              	HAL_SPI_MspInit:
 287              	.LVL17:
 288              	.LFB68:
 150:Core/Src/stm32f1xx_hal_msp.c **** 
 151:Core/Src/stm32f1xx_hal_msp.c **** /**
 152:Core/Src/stm32f1xx_hal_msp.c **** <<<<<<< HEAD
 153:Core/Src/stm32f1xx_hal_msp.c **** =======
 154:Core/Src/stm32f1xx_hal_msp.c **** * @brief SPI MSP Initialization
 155:Core/Src/stm32f1xx_hal_msp.c **** * This function configures the hardware resources used in this example
 156:Core/Src/stm32f1xx_hal_msp.c **** * @param hspi: SPI handle pointer
 157:Core/Src/stm32f1xx_hal_msp.c **** * @retval None
 158:Core/Src/stm32f1xx_hal_msp.c **** */
 159:Core/Src/stm32f1xx_hal_msp.c **** void HAL_SPI_MspInit(SPI_HandleTypeDef* hspi)
 160:Core/Src/stm32f1xx_hal_msp.c **** {
 289              		.loc 1 160 1 is_stmt 1 view -0
 290              		.cfi_startproc
 291              		@ args = 0, pretend = 0, frame = 24
 292              		@ frame_needed = 0, uses_anonymous_args = 0
 293              		.loc 1 160 1 is_stmt 0 view .LVU68
 294 0000 10B5     		push	{r4, lr}
 295              		.cfi_def_cfa_offset 8
 296              		.cfi_offset 4, -8
 297              		.cfi_offset 14, -4
 298 0002 86B0     		sub	sp, sp, #24
 299              		.cfi_def_cfa_offset 32
 161:Core/Src/stm32f1xx_hal_msp.c ****   GPIO_InitTypeDef GPIO_InitStruct = {0};
 300              		.loc 1 161 3 is_stmt 1 view .LVU69
 301              		.loc 1 161 20 is_stmt 0 view .LVU70
 302 0004 0023     		movs	r3, #0
 303 0006 0293     		str	r3, [sp, #8]
 304 0008 0393     		str	r3, [sp, #12]
 305 000a 0493     		str	r3, [sp, #16]
 306 000c 0593     		str	r3, [sp, #20]
 162:Core/Src/stm32f1xx_hal_msp.c ****   if(hspi->Instance==SPI2)
 307              		.loc 1 162 3 is_stmt 1 view .LVU71
 308              		.loc 1 162 10 is_stmt 0 view .LVU72
 309 000e 0268     		ldr	r2, [r0]
 310              		.loc 1 162 5 view .LVU73
 311 0010 174B     		ldr	r3, .L24
 312 0012 9A42     		cmp	r2, r3
 313 0014 01D0     		beq	.L23
 314              	.LVL18:
 315              	.L20:
 163:Core/Src/stm32f1xx_hal_msp.c ****   {
 164:Core/Src/stm32f1xx_hal_msp.c ****   /* USER CODE BEGIN SPI2_MspInit 0 */
 165:Core/Src/stm32f1xx_hal_msp.c **** 
 166:Core/Src/stm32f1xx_hal_msp.c ****   /* USER CODE END SPI2_MspInit 0 */
 167:Core/Src/stm32f1xx_hal_msp.c ****     /* Peripheral clock enable */
 168:Core/Src/stm32f1xx_hal_msp.c ****     __HAL_RCC_SPI2_CLK_ENABLE();
 169:Core/Src/stm32f1xx_hal_msp.c **** 
 170:Core/Src/stm32f1xx_hal_msp.c ****     __HAL_RCC_GPIOB_CLK_ENABLE();
 171:Core/Src/stm32f1xx_hal_msp.c ****     /**SPI2 GPIO Configuration
 172:Core/Src/stm32f1xx_hal_msp.c ****     PB13     ------> SPI2_SCK
 173:Core/Src/stm32f1xx_hal_msp.c ****     PB14     ------> SPI2_MISO
 174:Core/Src/stm32f1xx_hal_msp.c ****     PB15     ------> SPI2_MOSI
 175:Core/Src/stm32f1xx_hal_msp.c ****     */
 176:Core/Src/stm32f1xx_hal_msp.c ****     GPIO_InitStruct.Pin = GPIO_PIN_13|GPIO_PIN_15;
ARM GAS  C:\Users\timol\AppData\Local\Temp\ccGLJLqC.s 			page 10


 177:Core/Src/stm32f1xx_hal_msp.c ****     GPIO_InitStruct.Mode = GPIO_MODE_AF_PP;
 178:Core/Src/stm32f1xx_hal_msp.c ****     GPIO_InitStruct.Speed = GPIO_SPEED_FREQ_HIGH;
 179:Core/Src/stm32f1xx_hal_msp.c ****     HAL_GPIO_Init(GPIOB, &GPIO_InitStruct);
 180:Core/Src/stm32f1xx_hal_msp.c **** 
 181:Core/Src/stm32f1xx_hal_msp.c ****     GPIO_InitStruct.Pin = GPIO_PIN_14;
 182:Core/Src/stm32f1xx_hal_msp.c ****     GPIO_InitStruct.Mode = GPIO_MODE_INPUT;
 183:Core/Src/stm32f1xx_hal_msp.c ****     GPIO_InitStruct.Pull = GPIO_NOPULL;
 184:Core/Src/stm32f1xx_hal_msp.c ****     HAL_GPIO_Init(GPIOB, &GPIO_InitStruct);
 185:Core/Src/stm32f1xx_hal_msp.c **** 
 186:Core/Src/stm32f1xx_hal_msp.c ****   /* USER CODE BEGIN SPI2_MspInit 1 */
 187:Core/Src/stm32f1xx_hal_msp.c **** 
 188:Core/Src/stm32f1xx_hal_msp.c ****   /* USER CODE END SPI2_MspInit 1 */
 189:Core/Src/stm32f1xx_hal_msp.c ****   }
 190:Core/Src/stm32f1xx_hal_msp.c **** 
 191:Core/Src/stm32f1xx_hal_msp.c **** }
 316              		.loc 1 191 1 view .LVU74
 317 0016 06B0     		add	sp, sp, #24
 318              		.cfi_remember_state
 319              		.cfi_def_cfa_offset 8
 320              		@ sp needed
 321 0018 10BD     		pop	{r4, pc}
 322              	.LVL19:
 323              	.L23:
 324              		.cfi_restore_state
 168:Core/Src/stm32f1xx_hal_msp.c **** 
 325              		.loc 1 168 5 is_stmt 1 view .LVU75
 326              	.LBB8:
 168:Core/Src/stm32f1xx_hal_msp.c **** 
 327              		.loc 1 168 5 view .LVU76
 168:Core/Src/stm32f1xx_hal_msp.c **** 
 328              		.loc 1 168 5 view .LVU77
 329 001a 03F5EC33 		add	r3, r3, #120832
 330 001e DA69     		ldr	r2, [r3, #28]
 331 0020 42F48042 		orr	r2, r2, #16384
 332 0024 DA61     		str	r2, [r3, #28]
 168:Core/Src/stm32f1xx_hal_msp.c **** 
 333              		.loc 1 168 5 view .LVU78
 334 0026 DA69     		ldr	r2, [r3, #28]
 335 0028 02F48042 		and	r2, r2, #16384
 336 002c 0092     		str	r2, [sp]
 168:Core/Src/stm32f1xx_hal_msp.c **** 
 337              		.loc 1 168 5 view .LVU79
 338 002e 009A     		ldr	r2, [sp]
 339              	.LBE8:
 168:Core/Src/stm32f1xx_hal_msp.c **** 
 340              		.loc 1 168 5 view .LVU80
 170:Core/Src/stm32f1xx_hal_msp.c ****     /**SPI2 GPIO Configuration
 341              		.loc 1 170 5 view .LVU81
 342              	.LBB9:
 170:Core/Src/stm32f1xx_hal_msp.c ****     /**SPI2 GPIO Configuration
 343              		.loc 1 170 5 view .LVU82
 170:Core/Src/stm32f1xx_hal_msp.c ****     /**SPI2 GPIO Configuration
 344              		.loc 1 170 5 view .LVU83
 345 0030 9A69     		ldr	r2, [r3, #24]
 346 0032 42F00802 		orr	r2, r2, #8
 347 0036 9A61     		str	r2, [r3, #24]
 170:Core/Src/stm32f1xx_hal_msp.c ****     /**SPI2 GPIO Configuration
ARM GAS  C:\Users\timol\AppData\Local\Temp\ccGLJLqC.s 			page 11


 348              		.loc 1 170 5 view .LVU84
 349 0038 9B69     		ldr	r3, [r3, #24]
 350 003a 03F00803 		and	r3, r3, #8
 351 003e 0193     		str	r3, [sp, #4]
 170:Core/Src/stm32f1xx_hal_msp.c ****     /**SPI2 GPIO Configuration
 352              		.loc 1 170 5 view .LVU85
 353 0040 019B     		ldr	r3, [sp, #4]
 354              	.LBE9:
 170:Core/Src/stm32f1xx_hal_msp.c ****     /**SPI2 GPIO Configuration
 355              		.loc 1 170 5 view .LVU86
 176:Core/Src/stm32f1xx_hal_msp.c ****     GPIO_InitStruct.Mode = GPIO_MODE_AF_PP;
 356              		.loc 1 176 5 view .LVU87
 176:Core/Src/stm32f1xx_hal_msp.c ****     GPIO_InitStruct.Mode = GPIO_MODE_AF_PP;
 357              		.loc 1 176 25 is_stmt 0 view .LVU88
 358 0042 4FF42043 		mov	r3, #40960
 359 0046 0293     		str	r3, [sp, #8]
 177:Core/Src/stm32f1xx_hal_msp.c ****     GPIO_InitStruct.Speed = GPIO_SPEED_FREQ_HIGH;
 360              		.loc 1 177 5 is_stmt 1 view .LVU89
 177:Core/Src/stm32f1xx_hal_msp.c ****     GPIO_InitStruct.Speed = GPIO_SPEED_FREQ_HIGH;
 361              		.loc 1 177 26 is_stmt 0 view .LVU90
 362 0048 0223     		movs	r3, #2
 363 004a 0393     		str	r3, [sp, #12]
 178:Core/Src/stm32f1xx_hal_msp.c ****     HAL_GPIO_Init(GPIOB, &GPIO_InitStruct);
 364              		.loc 1 178 5 is_stmt 1 view .LVU91
 178:Core/Src/stm32f1xx_hal_msp.c ****     HAL_GPIO_Init(GPIOB, &GPIO_InitStruct);
 365              		.loc 1 178 27 is_stmt 0 view .LVU92
 366 004c 0323     		movs	r3, #3
 367 004e 0593     		str	r3, [sp, #20]
 179:Core/Src/stm32f1xx_hal_msp.c **** 
 368              		.loc 1 179 5 is_stmt 1 view .LVU93
 369 0050 084C     		ldr	r4, .L24+4
 370 0052 02A9     		add	r1, sp, #8
 371 0054 2046     		mov	r0, r4
 372              	.LVL20:
 179:Core/Src/stm32f1xx_hal_msp.c **** 
 373              		.loc 1 179 5 is_stmt 0 view .LVU94
 374 0056 FFF7FEFF 		bl	HAL_GPIO_Init
 375              	.LVL21:
 181:Core/Src/stm32f1xx_hal_msp.c ****     GPIO_InitStruct.Mode = GPIO_MODE_INPUT;
 376              		.loc 1 181 5 is_stmt 1 view .LVU95
 181:Core/Src/stm32f1xx_hal_msp.c ****     GPIO_InitStruct.Mode = GPIO_MODE_INPUT;
 377              		.loc 1 181 25 is_stmt 0 view .LVU96
 378 005a 4FF48043 		mov	r3, #16384
 379 005e 0293     		str	r3, [sp, #8]
 182:Core/Src/stm32f1xx_hal_msp.c ****     GPIO_InitStruct.Pull = GPIO_NOPULL;
 380              		.loc 1 182 5 is_stmt 1 view .LVU97
 182:Core/Src/stm32f1xx_hal_msp.c ****     GPIO_InitStruct.Pull = GPIO_NOPULL;
 381              		.loc 1 182 26 is_stmt 0 view .LVU98
 382 0060 0023     		movs	r3, #0
 383 0062 0393     		str	r3, [sp, #12]
 183:Core/Src/stm32f1xx_hal_msp.c ****     HAL_GPIO_Init(GPIOB, &GPIO_InitStruct);
 384              		.loc 1 183 5 is_stmt 1 view .LVU99
 183:Core/Src/stm32f1xx_hal_msp.c ****     HAL_GPIO_Init(GPIOB, &GPIO_InitStruct);
 385              		.loc 1 183 26 is_stmt 0 view .LVU100
 386 0064 0493     		str	r3, [sp, #16]
 184:Core/Src/stm32f1xx_hal_msp.c **** 
 387              		.loc 1 184 5 is_stmt 1 view .LVU101
ARM GAS  C:\Users\timol\AppData\Local\Temp\ccGLJLqC.s 			page 12


 388 0066 02A9     		add	r1, sp, #8
 389 0068 2046     		mov	r0, r4
 390 006a FFF7FEFF 		bl	HAL_GPIO_Init
 391              	.LVL22:
 392              		.loc 1 191 1 is_stmt 0 view .LVU102
 393 006e D2E7     		b	.L20
 394              	.L25:
 395              		.align	2
 396              	.L24:
 397 0070 00380040 		.word	1073756160
 398 0074 000C0140 		.word	1073810432
 399              		.cfi_endproc
 400              	.LFE68:
 402              		.section	.text.HAL_SPI_MspDeInit,"ax",%progbits
 403              		.align	1
 404              		.global	HAL_SPI_MspDeInit
 405              		.syntax unified
 406              		.thumb
 407              		.thumb_func
 409              	HAL_SPI_MspDeInit:
 410              	.LVL23:
 411              	.LFB69:
 192:Core/Src/stm32f1xx_hal_msp.c **** 
 193:Core/Src/stm32f1xx_hal_msp.c **** /**
 194:Core/Src/stm32f1xx_hal_msp.c **** * @brief SPI MSP De-Initialization
 195:Core/Src/stm32f1xx_hal_msp.c **** * This function freeze the hardware resources used in this example
 196:Core/Src/stm32f1xx_hal_msp.c **** * @param hspi: SPI handle pointer
 197:Core/Src/stm32f1xx_hal_msp.c **** * @retval None
 198:Core/Src/stm32f1xx_hal_msp.c **** */
 199:Core/Src/stm32f1xx_hal_msp.c **** void HAL_SPI_MspDeInit(SPI_HandleTypeDef* hspi)
 200:Core/Src/stm32f1xx_hal_msp.c **** {
 412              		.loc 1 200 1 is_stmt 1 view -0
 413              		.cfi_startproc
 414              		@ args = 0, pretend = 0, frame = 0
 415              		@ frame_needed = 0, uses_anonymous_args = 0
 416              		.loc 1 200 1 is_stmt 0 view .LVU104
 417 0000 08B5     		push	{r3, lr}
 418              		.cfi_def_cfa_offset 8
 419              		.cfi_offset 3, -8
 420              		.cfi_offset 14, -4
 201:Core/Src/stm32f1xx_hal_msp.c ****   if(hspi->Instance==SPI2)
 421              		.loc 1 201 3 is_stmt 1 view .LVU105
 422              		.loc 1 201 10 is_stmt 0 view .LVU106
 423 0002 0268     		ldr	r2, [r0]
 424              		.loc 1 201 5 view .LVU107
 425 0004 074B     		ldr	r3, .L30
 426 0006 9A42     		cmp	r2, r3
 427 0008 00D0     		beq	.L29
 428              	.LVL24:
 429              	.L26:
 202:Core/Src/stm32f1xx_hal_msp.c ****   {
 203:Core/Src/stm32f1xx_hal_msp.c ****   /* USER CODE BEGIN SPI2_MspDeInit 0 */
 204:Core/Src/stm32f1xx_hal_msp.c **** 
 205:Core/Src/stm32f1xx_hal_msp.c ****   /* USER CODE END SPI2_MspDeInit 0 */
 206:Core/Src/stm32f1xx_hal_msp.c ****     /* Peripheral clock disable */
 207:Core/Src/stm32f1xx_hal_msp.c ****     __HAL_RCC_SPI2_CLK_DISABLE();
 208:Core/Src/stm32f1xx_hal_msp.c **** 
ARM GAS  C:\Users\timol\AppData\Local\Temp\ccGLJLqC.s 			page 13


 209:Core/Src/stm32f1xx_hal_msp.c ****     /**SPI2 GPIO Configuration
 210:Core/Src/stm32f1xx_hal_msp.c ****     PB13     ------> SPI2_SCK
 211:Core/Src/stm32f1xx_hal_msp.c ****     PB14     ------> SPI2_MISO
 212:Core/Src/stm32f1xx_hal_msp.c ****     PB15     ------> SPI2_MOSI
 213:Core/Src/stm32f1xx_hal_msp.c ****     */
 214:Core/Src/stm32f1xx_hal_msp.c ****     HAL_GPIO_DeInit(GPIOB, GPIO_PIN_13|GPIO_PIN_14|GPIO_PIN_15);
 215:Core/Src/stm32f1xx_hal_msp.c **** 
 216:Core/Src/stm32f1xx_hal_msp.c ****   /* USER CODE BEGIN SPI2_MspDeInit 1 */
 217:Core/Src/stm32f1xx_hal_msp.c **** 
 218:Core/Src/stm32f1xx_hal_msp.c ****   /* USER CODE END SPI2_MspDeInit 1 */
 219:Core/Src/stm32f1xx_hal_msp.c ****   }
 220:Core/Src/stm32f1xx_hal_msp.c **** 
 221:Core/Src/stm32f1xx_hal_msp.c **** }
 430              		.loc 1 221 1 view .LVU108
 431 000a 08BD     		pop	{r3, pc}
 432              	.LVL25:
 433              	.L29:
 207:Core/Src/stm32f1xx_hal_msp.c **** 
 434              		.loc 1 207 5 is_stmt 1 view .LVU109
 435 000c 064A     		ldr	r2, .L30+4
 436 000e D369     		ldr	r3, [r2, #28]
 437 0010 23F48043 		bic	r3, r3, #16384
 438 0014 D361     		str	r3, [r2, #28]
 214:Core/Src/stm32f1xx_hal_msp.c **** 
 439              		.loc 1 214 5 view .LVU110
 440 0016 4FF46041 		mov	r1, #57344
 441 001a 0448     		ldr	r0, .L30+8
 442              	.LVL26:
 214:Core/Src/stm32f1xx_hal_msp.c **** 
 443              		.loc 1 214 5 is_stmt 0 view .LVU111
 444 001c FFF7FEFF 		bl	HAL_GPIO_DeInit
 445              	.LVL27:
 446              		.loc 1 221 1 view .LVU112
 447 0020 F3E7     		b	.L26
 448              	.L31:
 449 0022 00BF     		.align	2
 450              	.L30:
 451 0024 00380040 		.word	1073756160
 452 0028 00100240 		.word	1073876992
 453 002c 000C0140 		.word	1073810432
 454              		.cfi_endproc
 455              	.LFE69:
 457              		.section	.text.HAL_UART_MspInit,"ax",%progbits
 458              		.align	1
 459              		.global	HAL_UART_MspInit
 460              		.syntax unified
 461              		.thumb
 462              		.thumb_func
 464              	HAL_UART_MspInit:
 465              	.LVL28:
 466              	.LFB70:
 222:Core/Src/stm32f1xx_hal_msp.c **** 
 223:Core/Src/stm32f1xx_hal_msp.c **** /**
 224:Core/Src/stm32f1xx_hal_msp.c **** >>>>>>> 373321a3179c6242ba50aa1c030087278d9c2df4
 225:Core/Src/stm32f1xx_hal_msp.c **** * @brief UART MSP Initialization
 226:Core/Src/stm32f1xx_hal_msp.c **** * This function configures the hardware resources used in this example
 227:Core/Src/stm32f1xx_hal_msp.c **** * @param huart: UART handle pointer
ARM GAS  C:\Users\timol\AppData\Local\Temp\ccGLJLqC.s 			page 14


 228:Core/Src/stm32f1xx_hal_msp.c **** * @retval None
 229:Core/Src/stm32f1xx_hal_msp.c **** */
 230:Core/Src/stm32f1xx_hal_msp.c **** void HAL_UART_MspInit(UART_HandleTypeDef* huart)
 231:Core/Src/stm32f1xx_hal_msp.c **** {
 467              		.loc 1 231 1 is_stmt 1 view -0
 468              		.cfi_startproc
 469              		@ args = 0, pretend = 0, frame = 32
 470              		@ frame_needed = 0, uses_anonymous_args = 0
 471              		.loc 1 231 1 is_stmt 0 view .LVU114
 472 0000 10B5     		push	{r4, lr}
 473              		.cfi_def_cfa_offset 8
 474              		.cfi_offset 4, -8
 475              		.cfi_offset 14, -4
 476 0002 88B0     		sub	sp, sp, #32
 477              		.cfi_def_cfa_offset 40
 232:Core/Src/stm32f1xx_hal_msp.c ****   GPIO_InitTypeDef GPIO_InitStruct = {0};
 478              		.loc 1 232 3 is_stmt 1 view .LVU115
 479              		.loc 1 232 20 is_stmt 0 view .LVU116
 480 0004 0023     		movs	r3, #0
 481 0006 0493     		str	r3, [sp, #16]
 482 0008 0593     		str	r3, [sp, #20]
 483 000a 0693     		str	r3, [sp, #24]
 484 000c 0793     		str	r3, [sp, #28]
 233:Core/Src/stm32f1xx_hal_msp.c ****   if(huart->Instance==USART1)
 485              		.loc 1 233 3 is_stmt 1 view .LVU117
 486              		.loc 1 233 11 is_stmt 0 view .LVU118
 487 000e 0368     		ldr	r3, [r0]
 488              		.loc 1 233 5 view .LVU119
 489 0010 2C4A     		ldr	r2, .L38
 490 0012 9342     		cmp	r3, r2
 491 0014 04D0     		beq	.L36
 234:Core/Src/stm32f1xx_hal_msp.c ****   {
 235:Core/Src/stm32f1xx_hal_msp.c ****   /* USER CODE BEGIN USART1_MspInit 0 */
 236:Core/Src/stm32f1xx_hal_msp.c **** 
 237:Core/Src/stm32f1xx_hal_msp.c ****   /* USER CODE END USART1_MspInit 0 */
 238:Core/Src/stm32f1xx_hal_msp.c ****     /* Peripheral clock enable */
 239:Core/Src/stm32f1xx_hal_msp.c ****     __HAL_RCC_USART1_CLK_ENABLE();
 240:Core/Src/stm32f1xx_hal_msp.c **** 
 241:Core/Src/stm32f1xx_hal_msp.c ****     __HAL_RCC_GPIOA_CLK_ENABLE();
 242:Core/Src/stm32f1xx_hal_msp.c ****     /**USART1 GPIO Configuration
 243:Core/Src/stm32f1xx_hal_msp.c ****     PA9     ------> USART1_TX
 244:Core/Src/stm32f1xx_hal_msp.c ****     PA10     ------> USART1_RX
 245:Core/Src/stm32f1xx_hal_msp.c ****     */
 246:Core/Src/stm32f1xx_hal_msp.c ****     GPIO_InitStruct.Pin = GPIO_PIN_9;
 247:Core/Src/stm32f1xx_hal_msp.c ****     GPIO_InitStruct.Mode = GPIO_MODE_AF_PP;
 248:Core/Src/stm32f1xx_hal_msp.c ****     GPIO_InitStruct.Speed = GPIO_SPEED_FREQ_HIGH;
 249:Core/Src/stm32f1xx_hal_msp.c ****     HAL_GPIO_Init(GPIOA, &GPIO_InitStruct);
 250:Core/Src/stm32f1xx_hal_msp.c **** 
 251:Core/Src/stm32f1xx_hal_msp.c ****     GPIO_InitStruct.Pin = GPIO_PIN_10;
 252:Core/Src/stm32f1xx_hal_msp.c ****     GPIO_InitStruct.Mode = GPIO_MODE_INPUT;
 253:Core/Src/stm32f1xx_hal_msp.c ****     GPIO_InitStruct.Pull = GPIO_NOPULL;
 254:Core/Src/stm32f1xx_hal_msp.c ****     HAL_GPIO_Init(GPIOA, &GPIO_InitStruct);
 255:Core/Src/stm32f1xx_hal_msp.c **** 
 256:Core/Src/stm32f1xx_hal_msp.c ****   /* USER CODE BEGIN USART1_MspInit 1 */
 257:Core/Src/stm32f1xx_hal_msp.c **** 
 258:Core/Src/stm32f1xx_hal_msp.c ****   /* USER CODE END USART1_MspInit 1 */
 259:Core/Src/stm32f1xx_hal_msp.c ****   }
ARM GAS  C:\Users\timol\AppData\Local\Temp\ccGLJLqC.s 			page 15


 260:Core/Src/stm32f1xx_hal_msp.c ****   else if(huart->Instance==USART2)
 492              		.loc 1 260 8 is_stmt 1 view .LVU120
 493              		.loc 1 260 10 is_stmt 0 view .LVU121
 494 0016 2C4A     		ldr	r2, .L38+4
 495 0018 9342     		cmp	r3, r2
 496 001a 2BD0     		beq	.L37
 497              	.LVL29:
 498              	.L32:
 261:Core/Src/stm32f1xx_hal_msp.c ****   {
 262:Core/Src/stm32f1xx_hal_msp.c ****   /* USER CODE BEGIN USART2_MspInit 0 */
 263:Core/Src/stm32f1xx_hal_msp.c **** 
 264:Core/Src/stm32f1xx_hal_msp.c ****   /* USER CODE END USART2_MspInit 0 */
 265:Core/Src/stm32f1xx_hal_msp.c ****     /* Peripheral clock enable */
 266:Core/Src/stm32f1xx_hal_msp.c ****     __HAL_RCC_USART2_CLK_ENABLE();
 267:Core/Src/stm32f1xx_hal_msp.c **** 
 268:Core/Src/stm32f1xx_hal_msp.c ****     __HAL_RCC_GPIOA_CLK_ENABLE();
 269:Core/Src/stm32f1xx_hal_msp.c ****     /**USART2 GPIO Configuration
 270:Core/Src/stm32f1xx_hal_msp.c ****     PA2     ------> USART2_TX
 271:Core/Src/stm32f1xx_hal_msp.c ****     PA3     ------> USART2_RX
 272:Core/Src/stm32f1xx_hal_msp.c ****     */
 273:Core/Src/stm32f1xx_hal_msp.c ****     GPIO_InitStruct.Pin = GPIO_PIN_2;
 274:Core/Src/stm32f1xx_hal_msp.c ****     GPIO_InitStruct.Mode = GPIO_MODE_AF_PP;
 275:Core/Src/stm32f1xx_hal_msp.c ****     GPIO_InitStruct.Speed = GPIO_SPEED_FREQ_HIGH;
 276:Core/Src/stm32f1xx_hal_msp.c ****     HAL_GPIO_Init(GPIOA, &GPIO_InitStruct);
 277:Core/Src/stm32f1xx_hal_msp.c **** 
 278:Core/Src/stm32f1xx_hal_msp.c ****     GPIO_InitStruct.Pin = GPIO_PIN_3;
 279:Core/Src/stm32f1xx_hal_msp.c ****     GPIO_InitStruct.Mode = GPIO_MODE_INPUT;
 280:Core/Src/stm32f1xx_hal_msp.c ****     GPIO_InitStruct.Pull = GPIO_NOPULL;
 281:Core/Src/stm32f1xx_hal_msp.c ****     HAL_GPIO_Init(GPIOA, &GPIO_InitStruct);
 282:Core/Src/stm32f1xx_hal_msp.c **** 
 283:Core/Src/stm32f1xx_hal_msp.c ****   /* USER CODE BEGIN USART2_MspInit 1 */
 284:Core/Src/stm32f1xx_hal_msp.c **** 
 285:Core/Src/stm32f1xx_hal_msp.c ****   /* USER CODE END USART2_MspInit 1 */
 286:Core/Src/stm32f1xx_hal_msp.c ****   }
 287:Core/Src/stm32f1xx_hal_msp.c **** 
 288:Core/Src/stm32f1xx_hal_msp.c **** }
 499              		.loc 1 288 1 view .LVU122
 500 001c 08B0     		add	sp, sp, #32
 501              		.cfi_remember_state
 502              		.cfi_def_cfa_offset 8
 503              		@ sp needed
 504 001e 10BD     		pop	{r4, pc}
 505              	.LVL30:
 506              	.L36:
 507              		.cfi_restore_state
 239:Core/Src/stm32f1xx_hal_msp.c **** 
 508              		.loc 1 239 5 is_stmt 1 view .LVU123
 509              	.LBB10:
 239:Core/Src/stm32f1xx_hal_msp.c **** 
 510              		.loc 1 239 5 view .LVU124
 239:Core/Src/stm32f1xx_hal_msp.c **** 
 511              		.loc 1 239 5 view .LVU125
 512 0020 2A4B     		ldr	r3, .L38+8
 513 0022 9A69     		ldr	r2, [r3, #24]
 514 0024 42F48042 		orr	r2, r2, #16384
 515 0028 9A61     		str	r2, [r3, #24]
 239:Core/Src/stm32f1xx_hal_msp.c **** 
ARM GAS  C:\Users\timol\AppData\Local\Temp\ccGLJLqC.s 			page 16


 516              		.loc 1 239 5 view .LVU126
 517 002a 9A69     		ldr	r2, [r3, #24]
 518 002c 02F48042 		and	r2, r2, #16384
 519 0030 0092     		str	r2, [sp]
 239:Core/Src/stm32f1xx_hal_msp.c **** 
 520              		.loc 1 239 5 view .LVU127
 521 0032 009A     		ldr	r2, [sp]
 522              	.LBE10:
 239:Core/Src/stm32f1xx_hal_msp.c **** 
 523              		.loc 1 239 5 view .LVU128
 241:Core/Src/stm32f1xx_hal_msp.c ****     /**USART1 GPIO Configuration
 524              		.loc 1 241 5 view .LVU129
 525              	.LBB11:
 241:Core/Src/stm32f1xx_hal_msp.c ****     /**USART1 GPIO Configuration
 526              		.loc 1 241 5 view .LVU130
 241:Core/Src/stm32f1xx_hal_msp.c ****     /**USART1 GPIO Configuration
 527              		.loc 1 241 5 view .LVU131
 528 0034 9A69     		ldr	r2, [r3, #24]
 529 0036 42F00402 		orr	r2, r2, #4
 530 003a 9A61     		str	r2, [r3, #24]
 241:Core/Src/stm32f1xx_hal_msp.c ****     /**USART1 GPIO Configuration
 531              		.loc 1 241 5 view .LVU132
 532 003c 9B69     		ldr	r3, [r3, #24]
 533 003e 03F00403 		and	r3, r3, #4
 534 0042 0193     		str	r3, [sp, #4]
 241:Core/Src/stm32f1xx_hal_msp.c ****     /**USART1 GPIO Configuration
 535              		.loc 1 241 5 view .LVU133
 536 0044 019B     		ldr	r3, [sp, #4]
 537              	.LBE11:
 241:Core/Src/stm32f1xx_hal_msp.c ****     /**USART1 GPIO Configuration
 538              		.loc 1 241 5 view .LVU134
 246:Core/Src/stm32f1xx_hal_msp.c ****     GPIO_InitStruct.Mode = GPIO_MODE_AF_PP;
 539              		.loc 1 246 5 view .LVU135
 246:Core/Src/stm32f1xx_hal_msp.c ****     GPIO_InitStruct.Mode = GPIO_MODE_AF_PP;
 540              		.loc 1 246 25 is_stmt 0 view .LVU136
 541 0046 4FF40073 		mov	r3, #512
 542 004a 0493     		str	r3, [sp, #16]
 247:Core/Src/stm32f1xx_hal_msp.c ****     GPIO_InitStruct.Speed = GPIO_SPEED_FREQ_HIGH;
 543              		.loc 1 247 5 is_stmt 1 view .LVU137
 247:Core/Src/stm32f1xx_hal_msp.c ****     GPIO_InitStruct.Speed = GPIO_SPEED_FREQ_HIGH;
 544              		.loc 1 247 26 is_stmt 0 view .LVU138
 545 004c 0223     		movs	r3, #2
 546 004e 0593     		str	r3, [sp, #20]
 248:Core/Src/stm32f1xx_hal_msp.c ****     HAL_GPIO_Init(GPIOA, &GPIO_InitStruct);
 547              		.loc 1 248 5 is_stmt 1 view .LVU139
 248:Core/Src/stm32f1xx_hal_msp.c ****     HAL_GPIO_Init(GPIOA, &GPIO_InitStruct);
 548              		.loc 1 248 27 is_stmt 0 view .LVU140
 549 0050 0323     		movs	r3, #3
 550 0052 0793     		str	r3, [sp, #28]
 249:Core/Src/stm32f1xx_hal_msp.c **** 
 551              		.loc 1 249 5 is_stmt 1 view .LVU141
 552 0054 1E4C     		ldr	r4, .L38+12
 553 0056 04A9     		add	r1, sp, #16
 554 0058 2046     		mov	r0, r4
 555              	.LVL31:
 249:Core/Src/stm32f1xx_hal_msp.c **** 
 556              		.loc 1 249 5 is_stmt 0 view .LVU142
ARM GAS  C:\Users\timol\AppData\Local\Temp\ccGLJLqC.s 			page 17


 557 005a FFF7FEFF 		bl	HAL_GPIO_Init
 558              	.LVL32:
 251:Core/Src/stm32f1xx_hal_msp.c ****     GPIO_InitStruct.Mode = GPIO_MODE_INPUT;
 559              		.loc 1 251 5 is_stmt 1 view .LVU143
 251:Core/Src/stm32f1xx_hal_msp.c ****     GPIO_InitStruct.Mode = GPIO_MODE_INPUT;
 560              		.loc 1 251 25 is_stmt 0 view .LVU144
 561 005e 4FF48063 		mov	r3, #1024
 562 0062 0493     		str	r3, [sp, #16]
 252:Core/Src/stm32f1xx_hal_msp.c ****     GPIO_InitStruct.Pull = GPIO_NOPULL;
 563              		.loc 1 252 5 is_stmt 1 view .LVU145
 252:Core/Src/stm32f1xx_hal_msp.c ****     GPIO_InitStruct.Pull = GPIO_NOPULL;
 564              		.loc 1 252 26 is_stmt 0 view .LVU146
 565 0064 0023     		movs	r3, #0
 566 0066 0593     		str	r3, [sp, #20]
 253:Core/Src/stm32f1xx_hal_msp.c ****     HAL_GPIO_Init(GPIOA, &GPIO_InitStruct);
 567              		.loc 1 253 5 is_stmt 1 view .LVU147
 253:Core/Src/stm32f1xx_hal_msp.c ****     HAL_GPIO_Init(GPIOA, &GPIO_InitStruct);
 568              		.loc 1 253 26 is_stmt 0 view .LVU148
 569 0068 0693     		str	r3, [sp, #24]
 254:Core/Src/stm32f1xx_hal_msp.c **** 
 570              		.loc 1 254 5 is_stmt 1 view .LVU149
 571 006a 04A9     		add	r1, sp, #16
 572 006c 2046     		mov	r0, r4
 573 006e FFF7FEFF 		bl	HAL_GPIO_Init
 574              	.LVL33:
 575 0072 D3E7     		b	.L32
 576              	.LVL34:
 577              	.L37:
 266:Core/Src/stm32f1xx_hal_msp.c **** 
 578              		.loc 1 266 5 view .LVU150
 579              	.LBB12:
 266:Core/Src/stm32f1xx_hal_msp.c **** 
 580              		.loc 1 266 5 view .LVU151
 266:Core/Src/stm32f1xx_hal_msp.c **** 
 581              		.loc 1 266 5 view .LVU152
 582 0074 154B     		ldr	r3, .L38+8
 583 0076 DA69     		ldr	r2, [r3, #28]
 584 0078 42F40032 		orr	r2, r2, #131072
 585 007c DA61     		str	r2, [r3, #28]
 266:Core/Src/stm32f1xx_hal_msp.c **** 
 586              		.loc 1 266 5 view .LVU153
 587 007e DA69     		ldr	r2, [r3, #28]
 588 0080 02F40032 		and	r2, r2, #131072
 589 0084 0292     		str	r2, [sp, #8]
 266:Core/Src/stm32f1xx_hal_msp.c **** 
 590              		.loc 1 266 5 view .LVU154
 591 0086 029A     		ldr	r2, [sp, #8]
 592              	.LBE12:
 266:Core/Src/stm32f1xx_hal_msp.c **** 
 593              		.loc 1 266 5 view .LVU155
 268:Core/Src/stm32f1xx_hal_msp.c ****     /**USART2 GPIO Configuration
 594              		.loc 1 268 5 view .LVU156
 595              	.LBB13:
 268:Core/Src/stm32f1xx_hal_msp.c ****     /**USART2 GPIO Configuration
 596              		.loc 1 268 5 view .LVU157
 268:Core/Src/stm32f1xx_hal_msp.c ****     /**USART2 GPIO Configuration
 597              		.loc 1 268 5 view .LVU158
ARM GAS  C:\Users\timol\AppData\Local\Temp\ccGLJLqC.s 			page 18


 598 0088 9A69     		ldr	r2, [r3, #24]
 599 008a 42F00402 		orr	r2, r2, #4
 600 008e 9A61     		str	r2, [r3, #24]
 268:Core/Src/stm32f1xx_hal_msp.c ****     /**USART2 GPIO Configuration
 601              		.loc 1 268 5 view .LVU159
 602 0090 9B69     		ldr	r3, [r3, #24]
 603 0092 03F00403 		and	r3, r3, #4
 604 0096 0393     		str	r3, [sp, #12]
 268:Core/Src/stm32f1xx_hal_msp.c ****     /**USART2 GPIO Configuration
 605              		.loc 1 268 5 view .LVU160
 606 0098 039B     		ldr	r3, [sp, #12]
 607              	.LBE13:
 268:Core/Src/stm32f1xx_hal_msp.c ****     /**USART2 GPIO Configuration
 608              		.loc 1 268 5 view .LVU161
 273:Core/Src/stm32f1xx_hal_msp.c ****     GPIO_InitStruct.Mode = GPIO_MODE_AF_PP;
 609              		.loc 1 273 5 view .LVU162
 273:Core/Src/stm32f1xx_hal_msp.c ****     GPIO_InitStruct.Mode = GPIO_MODE_AF_PP;
 610              		.loc 1 273 25 is_stmt 0 view .LVU163
 611 009a 0423     		movs	r3, #4
 612 009c 0493     		str	r3, [sp, #16]
 274:Core/Src/stm32f1xx_hal_msp.c ****     GPIO_InitStruct.Speed = GPIO_SPEED_FREQ_HIGH;
 613              		.loc 1 274 5 is_stmt 1 view .LVU164
 274:Core/Src/stm32f1xx_hal_msp.c ****     GPIO_InitStruct.Speed = GPIO_SPEED_FREQ_HIGH;
 614              		.loc 1 274 26 is_stmt 0 view .LVU165
 615 009e 0223     		movs	r3, #2
 616 00a0 0593     		str	r3, [sp, #20]
 275:Core/Src/stm32f1xx_hal_msp.c ****     HAL_GPIO_Init(GPIOA, &GPIO_InitStruct);
 617              		.loc 1 275 5 is_stmt 1 view .LVU166
 275:Core/Src/stm32f1xx_hal_msp.c ****     HAL_GPIO_Init(GPIOA, &GPIO_InitStruct);
 618              		.loc 1 275 27 is_stmt 0 view .LVU167
 619 00a2 0323     		movs	r3, #3
 620 00a4 0793     		str	r3, [sp, #28]
 276:Core/Src/stm32f1xx_hal_msp.c **** 
 621              		.loc 1 276 5 is_stmt 1 view .LVU168
 622 00a6 0A4C     		ldr	r4, .L38+12
 623 00a8 04A9     		add	r1, sp, #16
 624 00aa 2046     		mov	r0, r4
 625              	.LVL35:
 276:Core/Src/stm32f1xx_hal_msp.c **** 
 626              		.loc 1 276 5 is_stmt 0 view .LVU169
 627 00ac FFF7FEFF 		bl	HAL_GPIO_Init
 628              	.LVL36:
 278:Core/Src/stm32f1xx_hal_msp.c ****     GPIO_InitStruct.Mode = GPIO_MODE_INPUT;
 629              		.loc 1 278 5 is_stmt 1 view .LVU170
 278:Core/Src/stm32f1xx_hal_msp.c ****     GPIO_InitStruct.Mode = GPIO_MODE_INPUT;
 630              		.loc 1 278 25 is_stmt 0 view .LVU171
 631 00b0 0823     		movs	r3, #8
 632 00b2 0493     		str	r3, [sp, #16]
 279:Core/Src/stm32f1xx_hal_msp.c ****     GPIO_InitStruct.Pull = GPIO_NOPULL;
 633              		.loc 1 279 5 is_stmt 1 view .LVU172
 279:Core/Src/stm32f1xx_hal_msp.c ****     GPIO_InitStruct.Pull = GPIO_NOPULL;
 634              		.loc 1 279 26 is_stmt 0 view .LVU173
 635 00b4 0023     		movs	r3, #0
 636 00b6 0593     		str	r3, [sp, #20]
 280:Core/Src/stm32f1xx_hal_msp.c ****     HAL_GPIO_Init(GPIOA, &GPIO_InitStruct);
 637              		.loc 1 280 5 is_stmt 1 view .LVU174
 280:Core/Src/stm32f1xx_hal_msp.c ****     HAL_GPIO_Init(GPIOA, &GPIO_InitStruct);
ARM GAS  C:\Users\timol\AppData\Local\Temp\ccGLJLqC.s 			page 19


 638              		.loc 1 280 26 is_stmt 0 view .LVU175
 639 00b8 0693     		str	r3, [sp, #24]
 281:Core/Src/stm32f1xx_hal_msp.c **** 
 640              		.loc 1 281 5 is_stmt 1 view .LVU176
 641 00ba 04A9     		add	r1, sp, #16
 642 00bc 2046     		mov	r0, r4
 643 00be FFF7FEFF 		bl	HAL_GPIO_Init
 644              	.LVL37:
 645              		.loc 1 288 1 is_stmt 0 view .LVU177
 646 00c2 ABE7     		b	.L32
 647              	.L39:
 648              		.align	2
 649              	.L38:
 650 00c4 00380140 		.word	1073821696
 651 00c8 00440040 		.word	1073759232
 652 00cc 00100240 		.word	1073876992
 653 00d0 00080140 		.word	1073809408
 654              		.cfi_endproc
 655              	.LFE70:
 657              		.section	.text.HAL_USART_MspInit,"ax",%progbits
 658              		.align	1
 659              		.global	HAL_USART_MspInit
 660              		.syntax unified
 661              		.thumb
 662              		.thumb_func
 664              	HAL_USART_MspInit:
 665              	.LVL38:
 666              	.LFB71:
 289:Core/Src/stm32f1xx_hal_msp.c **** 
 290:Core/Src/stm32f1xx_hal_msp.c **** /**
 291:Core/Src/stm32f1xx_hal_msp.c **** * @brief USART MSP Initialization
 292:Core/Src/stm32f1xx_hal_msp.c **** * This function configures the hardware resources used in this example
 293:Core/Src/stm32f1xx_hal_msp.c **** * @param husart: USART handle pointer
 294:Core/Src/stm32f1xx_hal_msp.c **** * @retval None
 295:Core/Src/stm32f1xx_hal_msp.c **** */
 296:Core/Src/stm32f1xx_hal_msp.c **** void HAL_USART_MspInit(USART_HandleTypeDef* husart)
 297:Core/Src/stm32f1xx_hal_msp.c **** {
 667              		.loc 1 297 1 is_stmt 1 view -0
 668              		.cfi_startproc
 669              		@ args = 0, pretend = 0, frame = 24
 670              		@ frame_needed = 0, uses_anonymous_args = 0
 671              		.loc 1 297 1 is_stmt 0 view .LVU179
 672 0000 10B5     		push	{r4, lr}
 673              		.cfi_def_cfa_offset 8
 674              		.cfi_offset 4, -8
 675              		.cfi_offset 14, -4
 676 0002 86B0     		sub	sp, sp, #24
 677              		.cfi_def_cfa_offset 32
 298:Core/Src/stm32f1xx_hal_msp.c ****   GPIO_InitTypeDef GPIO_InitStruct = {0};
 678              		.loc 1 298 3 is_stmt 1 view .LVU180
 679              		.loc 1 298 20 is_stmt 0 view .LVU181
 680 0004 0023     		movs	r3, #0
 681 0006 0293     		str	r3, [sp, #8]
 682 0008 0393     		str	r3, [sp, #12]
 683 000a 0493     		str	r3, [sp, #16]
 684 000c 0593     		str	r3, [sp, #20]
 299:Core/Src/stm32f1xx_hal_msp.c ****   if(husart->Instance==USART3)
ARM GAS  C:\Users\timol\AppData\Local\Temp\ccGLJLqC.s 			page 20


 685              		.loc 1 299 3 is_stmt 1 view .LVU182
 686              		.loc 1 299 12 is_stmt 0 view .LVU183
 687 000e 0268     		ldr	r2, [r0]
 688              		.loc 1 299 5 view .LVU184
 689 0010 174B     		ldr	r3, .L44
 690 0012 9A42     		cmp	r2, r3
 691 0014 01D0     		beq	.L43
 692              	.LVL39:
 693              	.L40:
 300:Core/Src/stm32f1xx_hal_msp.c ****   {
 301:Core/Src/stm32f1xx_hal_msp.c ****   /* USER CODE BEGIN USART3_MspInit 0 */
 302:Core/Src/stm32f1xx_hal_msp.c **** 
 303:Core/Src/stm32f1xx_hal_msp.c ****   /* USER CODE END USART3_MspInit 0 */
 304:Core/Src/stm32f1xx_hal_msp.c ****     /* Peripheral clock enable */
 305:Core/Src/stm32f1xx_hal_msp.c ****     __HAL_RCC_USART3_CLK_ENABLE();
 306:Core/Src/stm32f1xx_hal_msp.c **** 
 307:Core/Src/stm32f1xx_hal_msp.c ****     __HAL_RCC_GPIOB_CLK_ENABLE();
 308:Core/Src/stm32f1xx_hal_msp.c ****     /**USART3 GPIO Configuration
 309:Core/Src/stm32f1xx_hal_msp.c ****     PB10     ------> USART3_TX
 310:Core/Src/stm32f1xx_hal_msp.c ****     PB11     ------> USART3_RX
 311:Core/Src/stm32f1xx_hal_msp.c ****     PB12     ------> USART3_CK
 312:Core/Src/stm32f1xx_hal_msp.c ****     */
 313:Core/Src/stm32f1xx_hal_msp.c ****     GPIO_InitStruct.Pin = GPIO_PIN_10|GPIO_PIN_12;
 314:Core/Src/stm32f1xx_hal_msp.c ****     GPIO_InitStruct.Mode = GPIO_MODE_AF_PP;
 315:Core/Src/stm32f1xx_hal_msp.c ****     GPIO_InitStruct.Speed = GPIO_SPEED_FREQ_HIGH;
 316:Core/Src/stm32f1xx_hal_msp.c ****     HAL_GPIO_Init(GPIOB, &GPIO_InitStruct);
 317:Core/Src/stm32f1xx_hal_msp.c **** 
 318:Core/Src/stm32f1xx_hal_msp.c ****     GPIO_InitStruct.Pin = GPIO_PIN_11;
 319:Core/Src/stm32f1xx_hal_msp.c ****     GPIO_InitStruct.Mode = GPIO_MODE_INPUT;
 320:Core/Src/stm32f1xx_hal_msp.c ****     GPIO_InitStruct.Pull = GPIO_NOPULL;
 321:Core/Src/stm32f1xx_hal_msp.c ****     HAL_GPIO_Init(GPIOB, &GPIO_InitStruct);
 322:Core/Src/stm32f1xx_hal_msp.c **** 
 323:Core/Src/stm32f1xx_hal_msp.c ****   /* USER CODE BEGIN USART3_MspInit 1 */
 324:Core/Src/stm32f1xx_hal_msp.c **** 
 325:Core/Src/stm32f1xx_hal_msp.c ****   /* USER CODE END USART3_MspInit 1 */
 326:Core/Src/stm32f1xx_hal_msp.c ****   }
 327:Core/Src/stm32f1xx_hal_msp.c **** 
 328:Core/Src/stm32f1xx_hal_msp.c **** }
 694              		.loc 1 328 1 view .LVU185
 695 0016 06B0     		add	sp, sp, #24
 696              		.cfi_remember_state
 697              		.cfi_def_cfa_offset 8
 698              		@ sp needed
 699 0018 10BD     		pop	{r4, pc}
 700              	.LVL40:
 701              	.L43:
 702              		.cfi_restore_state
 305:Core/Src/stm32f1xx_hal_msp.c **** 
 703              		.loc 1 305 5 is_stmt 1 view .LVU186
 704              	.LBB14:
 305:Core/Src/stm32f1xx_hal_msp.c **** 
 705              		.loc 1 305 5 view .LVU187
 305:Core/Src/stm32f1xx_hal_msp.c **** 
 706              		.loc 1 305 5 view .LVU188
 707 001a 03F5E433 		add	r3, r3, #116736
 708 001e DA69     		ldr	r2, [r3, #28]
 709 0020 42F48022 		orr	r2, r2, #262144
ARM GAS  C:\Users\timol\AppData\Local\Temp\ccGLJLqC.s 			page 21


 710 0024 DA61     		str	r2, [r3, #28]
 305:Core/Src/stm32f1xx_hal_msp.c **** 
 711              		.loc 1 305 5 view .LVU189
 712 0026 DA69     		ldr	r2, [r3, #28]
 713 0028 02F48022 		and	r2, r2, #262144
 714 002c 0092     		str	r2, [sp]
 305:Core/Src/stm32f1xx_hal_msp.c **** 
 715              		.loc 1 305 5 view .LVU190
 716 002e 009A     		ldr	r2, [sp]
 717              	.LBE14:
 305:Core/Src/stm32f1xx_hal_msp.c **** 
 718              		.loc 1 305 5 view .LVU191
 307:Core/Src/stm32f1xx_hal_msp.c ****     /**USART3 GPIO Configuration
 719              		.loc 1 307 5 view .LVU192
 720              	.LBB15:
 307:Core/Src/stm32f1xx_hal_msp.c ****     /**USART3 GPIO Configuration
 721              		.loc 1 307 5 view .LVU193
 307:Core/Src/stm32f1xx_hal_msp.c ****     /**USART3 GPIO Configuration
 722              		.loc 1 307 5 view .LVU194
 723 0030 9A69     		ldr	r2, [r3, #24]
 724 0032 42F00802 		orr	r2, r2, #8
 725 0036 9A61     		str	r2, [r3, #24]
 307:Core/Src/stm32f1xx_hal_msp.c ****     /**USART3 GPIO Configuration
 726              		.loc 1 307 5 view .LVU195
 727 0038 9B69     		ldr	r3, [r3, #24]
 728 003a 03F00803 		and	r3, r3, #8
 729 003e 0193     		str	r3, [sp, #4]
 307:Core/Src/stm32f1xx_hal_msp.c ****     /**USART3 GPIO Configuration
 730              		.loc 1 307 5 view .LVU196
 731 0040 019B     		ldr	r3, [sp, #4]
 732              	.LBE15:
 307:Core/Src/stm32f1xx_hal_msp.c ****     /**USART3 GPIO Configuration
 733              		.loc 1 307 5 view .LVU197
 313:Core/Src/stm32f1xx_hal_msp.c ****     GPIO_InitStruct.Mode = GPIO_MODE_AF_PP;
 734              		.loc 1 313 5 view .LVU198
 313:Core/Src/stm32f1xx_hal_msp.c ****     GPIO_InitStruct.Mode = GPIO_MODE_AF_PP;
 735              		.loc 1 313 25 is_stmt 0 view .LVU199
 736 0042 4FF4A053 		mov	r3, #5120
 737 0046 0293     		str	r3, [sp, #8]
 314:Core/Src/stm32f1xx_hal_msp.c ****     GPIO_InitStruct.Speed = GPIO_SPEED_FREQ_HIGH;
 738              		.loc 1 314 5 is_stmt 1 view .LVU200
 314:Core/Src/stm32f1xx_hal_msp.c ****     GPIO_InitStruct.Speed = GPIO_SPEED_FREQ_HIGH;
 739              		.loc 1 314 26 is_stmt 0 view .LVU201
 740 0048 0223     		movs	r3, #2
 741 004a 0393     		str	r3, [sp, #12]
 315:Core/Src/stm32f1xx_hal_msp.c ****     HAL_GPIO_Init(GPIOB, &GPIO_InitStruct);
 742              		.loc 1 315 5 is_stmt 1 view .LVU202
 315:Core/Src/stm32f1xx_hal_msp.c ****     HAL_GPIO_Init(GPIOB, &GPIO_InitStruct);
 743              		.loc 1 315 27 is_stmt 0 view .LVU203
 744 004c 0323     		movs	r3, #3
 745 004e 0593     		str	r3, [sp, #20]
 316:Core/Src/stm32f1xx_hal_msp.c **** 
 746              		.loc 1 316 5 is_stmt 1 view .LVU204
 747 0050 084C     		ldr	r4, .L44+4
 748 0052 02A9     		add	r1, sp, #8
 749 0054 2046     		mov	r0, r4
 750              	.LVL41:
ARM GAS  C:\Users\timol\AppData\Local\Temp\ccGLJLqC.s 			page 22


 316:Core/Src/stm32f1xx_hal_msp.c **** 
 751              		.loc 1 316 5 is_stmt 0 view .LVU205
 752 0056 FFF7FEFF 		bl	HAL_GPIO_Init
 753              	.LVL42:
 318:Core/Src/stm32f1xx_hal_msp.c ****     GPIO_InitStruct.Mode = GPIO_MODE_INPUT;
 754              		.loc 1 318 5 is_stmt 1 view .LVU206
 318:Core/Src/stm32f1xx_hal_msp.c ****     GPIO_InitStruct.Mode = GPIO_MODE_INPUT;
 755              		.loc 1 318 25 is_stmt 0 view .LVU207
 756 005a 4FF40063 		mov	r3, #2048
 757 005e 0293     		str	r3, [sp, #8]
 319:Core/Src/stm32f1xx_hal_msp.c ****     GPIO_InitStruct.Pull = GPIO_NOPULL;
 758              		.loc 1 319 5 is_stmt 1 view .LVU208
 319:Core/Src/stm32f1xx_hal_msp.c ****     GPIO_InitStruct.Pull = GPIO_NOPULL;
 759              		.loc 1 319 26 is_stmt 0 view .LVU209
 760 0060 0023     		movs	r3, #0
 761 0062 0393     		str	r3, [sp, #12]
 320:Core/Src/stm32f1xx_hal_msp.c ****     HAL_GPIO_Init(GPIOB, &GPIO_InitStruct);
 762              		.loc 1 320 5 is_stmt 1 view .LVU210
 320:Core/Src/stm32f1xx_hal_msp.c ****     HAL_GPIO_Init(GPIOB, &GPIO_InitStruct);
 763              		.loc 1 320 26 is_stmt 0 view .LVU211
 764 0064 0493     		str	r3, [sp, #16]
 321:Core/Src/stm32f1xx_hal_msp.c **** 
 765              		.loc 1 321 5 is_stmt 1 view .LVU212
 766 0066 02A9     		add	r1, sp, #8
 767 0068 2046     		mov	r0, r4
 768 006a FFF7FEFF 		bl	HAL_GPIO_Init
 769              	.LVL43:
 770              		.loc 1 328 1 is_stmt 0 view .LVU213
 771 006e D2E7     		b	.L40
 772              	.L45:
 773              		.align	2
 774              	.L44:
 775 0070 00480040 		.word	1073760256
 776 0074 000C0140 		.word	1073810432
 777              		.cfi_endproc
 778              	.LFE71:
 780              		.section	.text.HAL_UART_MspDeInit,"ax",%progbits
 781              		.align	1
 782              		.global	HAL_UART_MspDeInit
 783              		.syntax unified
 784              		.thumb
 785              		.thumb_func
 787              	HAL_UART_MspDeInit:
 788              	.LVL44:
 789              	.LFB72:
 329:Core/Src/stm32f1xx_hal_msp.c **** 
 330:Core/Src/stm32f1xx_hal_msp.c **** /**
 331:Core/Src/stm32f1xx_hal_msp.c **** * @brief UART MSP De-Initialization
 332:Core/Src/stm32f1xx_hal_msp.c **** * This function freeze the hardware resources used in this example
 333:Core/Src/stm32f1xx_hal_msp.c **** * @param huart: UART handle pointer
 334:Core/Src/stm32f1xx_hal_msp.c **** * @retval None
 335:Core/Src/stm32f1xx_hal_msp.c **** */
 336:Core/Src/stm32f1xx_hal_msp.c **** void HAL_UART_MspDeInit(UART_HandleTypeDef* huart)
 337:Core/Src/stm32f1xx_hal_msp.c **** {
 790              		.loc 1 337 1 is_stmt 1 view -0
 791              		.cfi_startproc
 792              		@ args = 0, pretend = 0, frame = 0
ARM GAS  C:\Users\timol\AppData\Local\Temp\ccGLJLqC.s 			page 23


 793              		@ frame_needed = 0, uses_anonymous_args = 0
 794              		.loc 1 337 1 is_stmt 0 view .LVU215
 795 0000 08B5     		push	{r3, lr}
 796              		.cfi_def_cfa_offset 8
 797              		.cfi_offset 3, -8
 798              		.cfi_offset 14, -4
 338:Core/Src/stm32f1xx_hal_msp.c ****   if(huart->Instance==USART1)
 799              		.loc 1 338 3 is_stmt 1 view .LVU216
 800              		.loc 1 338 11 is_stmt 0 view .LVU217
 801 0002 0368     		ldr	r3, [r0]
 802              		.loc 1 338 5 view .LVU218
 803 0004 0E4A     		ldr	r2, .L52
 804 0006 9342     		cmp	r3, r2
 805 0008 03D0     		beq	.L50
 339:Core/Src/stm32f1xx_hal_msp.c ****   {
 340:Core/Src/stm32f1xx_hal_msp.c ****   /* USER CODE BEGIN USART1_MspDeInit 0 */
 341:Core/Src/stm32f1xx_hal_msp.c **** 
 342:Core/Src/stm32f1xx_hal_msp.c ****   /* USER CODE END USART1_MspDeInit 0 */
 343:Core/Src/stm32f1xx_hal_msp.c ****     /* Peripheral clock disable */
 344:Core/Src/stm32f1xx_hal_msp.c ****     __HAL_RCC_USART1_CLK_DISABLE();
 345:Core/Src/stm32f1xx_hal_msp.c **** 
 346:Core/Src/stm32f1xx_hal_msp.c ****     /**USART1 GPIO Configuration
 347:Core/Src/stm32f1xx_hal_msp.c ****     PA9     ------> USART1_TX
 348:Core/Src/stm32f1xx_hal_msp.c ****     PA10     ------> USART1_RX
 349:Core/Src/stm32f1xx_hal_msp.c ****     */
 350:Core/Src/stm32f1xx_hal_msp.c ****     HAL_GPIO_DeInit(GPIOA, GPIO_PIN_9|GPIO_PIN_10);
 351:Core/Src/stm32f1xx_hal_msp.c **** 
 352:Core/Src/stm32f1xx_hal_msp.c ****   /* USER CODE BEGIN USART1_MspDeInit 1 */
 353:Core/Src/stm32f1xx_hal_msp.c **** 
 354:Core/Src/stm32f1xx_hal_msp.c ****   /* USER CODE END USART1_MspDeInit 1 */
 355:Core/Src/stm32f1xx_hal_msp.c ****   }
 356:Core/Src/stm32f1xx_hal_msp.c ****   else if(huart->Instance==USART2)
 806              		.loc 1 356 8 is_stmt 1 view .LVU219
 807              		.loc 1 356 10 is_stmt 0 view .LVU220
 808 000a 0E4A     		ldr	r2, .L52+4
 809 000c 9342     		cmp	r3, r2
 810 000e 0CD0     		beq	.L51
 811              	.LVL45:
 812              	.L46:
 357:Core/Src/stm32f1xx_hal_msp.c ****   {
 358:Core/Src/stm32f1xx_hal_msp.c ****   /* USER CODE BEGIN USART2_MspDeInit 0 */
 359:Core/Src/stm32f1xx_hal_msp.c **** 
 360:Core/Src/stm32f1xx_hal_msp.c ****   /* USER CODE END USART2_MspDeInit 0 */
 361:Core/Src/stm32f1xx_hal_msp.c ****     /* Peripheral clock disable */
 362:Core/Src/stm32f1xx_hal_msp.c ****     __HAL_RCC_USART2_CLK_DISABLE();
 363:Core/Src/stm32f1xx_hal_msp.c **** 
 364:Core/Src/stm32f1xx_hal_msp.c ****     /**USART2 GPIO Configuration
 365:Core/Src/stm32f1xx_hal_msp.c ****     PA2     ------> USART2_TX
 366:Core/Src/stm32f1xx_hal_msp.c ****     PA3     ------> USART2_RX
 367:Core/Src/stm32f1xx_hal_msp.c ****     */
 368:Core/Src/stm32f1xx_hal_msp.c ****     HAL_GPIO_DeInit(GPIOA, GPIO_PIN_2|GPIO_PIN_3);
 369:Core/Src/stm32f1xx_hal_msp.c **** 
 370:Core/Src/stm32f1xx_hal_msp.c ****   /* USER CODE BEGIN USART2_MspDeInit 1 */
 371:Core/Src/stm32f1xx_hal_msp.c **** 
 372:Core/Src/stm32f1xx_hal_msp.c ****   /* USER CODE END USART2_MspDeInit 1 */
 373:Core/Src/stm32f1xx_hal_msp.c ****   }
 374:Core/Src/stm32f1xx_hal_msp.c **** 
ARM GAS  C:\Users\timol\AppData\Local\Temp\ccGLJLqC.s 			page 24


 375:Core/Src/stm32f1xx_hal_msp.c **** }
 813              		.loc 1 375 1 view .LVU221
 814 0010 08BD     		pop	{r3, pc}
 815              	.LVL46:
 816              	.L50:
 344:Core/Src/stm32f1xx_hal_msp.c **** 
 817              		.loc 1 344 5 is_stmt 1 view .LVU222
 818 0012 02F55842 		add	r2, r2, #55296
 819 0016 9369     		ldr	r3, [r2, #24]
 820 0018 23F48043 		bic	r3, r3, #16384
 821 001c 9361     		str	r3, [r2, #24]
 350:Core/Src/stm32f1xx_hal_msp.c **** 
 822              		.loc 1 350 5 view .LVU223
 823 001e 4FF4C061 		mov	r1, #1536
 824 0022 0948     		ldr	r0, .L52+8
 825              	.LVL47:
 350:Core/Src/stm32f1xx_hal_msp.c **** 
 826              		.loc 1 350 5 is_stmt 0 view .LVU224
 827 0024 FFF7FEFF 		bl	HAL_GPIO_DeInit
 828              	.LVL48:
 829 0028 F2E7     		b	.L46
 830              	.LVL49:
 831              	.L51:
 362:Core/Src/stm32f1xx_hal_msp.c **** 
 832              		.loc 1 362 5 is_stmt 1 view .LVU225
 833 002a 02F5E632 		add	r2, r2, #117760
 834 002e D369     		ldr	r3, [r2, #28]
 835 0030 23F40033 		bic	r3, r3, #131072
 836 0034 D361     		str	r3, [r2, #28]
 368:Core/Src/stm32f1xx_hal_msp.c **** 
 837              		.loc 1 368 5 view .LVU226
 838 0036 0C21     		movs	r1, #12
 839 0038 0348     		ldr	r0, .L52+8
 840              	.LVL50:
 368:Core/Src/stm32f1xx_hal_msp.c **** 
 841              		.loc 1 368 5 is_stmt 0 view .LVU227
 842 003a FFF7FEFF 		bl	HAL_GPIO_DeInit
 843              	.LVL51:
 844              		.loc 1 375 1 view .LVU228
 845 003e E7E7     		b	.L46
 846              	.L53:
 847              		.align	2
 848              	.L52:
 849 0040 00380140 		.word	1073821696
 850 0044 00440040 		.word	1073759232
 851 0048 00080140 		.word	1073809408
 852              		.cfi_endproc
 853              	.LFE72:
 855              		.section	.text.HAL_USART_MspDeInit,"ax",%progbits
 856              		.align	1
 857              		.global	HAL_USART_MspDeInit
 858              		.syntax unified
 859              		.thumb
 860              		.thumb_func
 862              	HAL_USART_MspDeInit:
 863              	.LVL52:
 864              	.LFB73:
ARM GAS  C:\Users\timol\AppData\Local\Temp\ccGLJLqC.s 			page 25


 376:Core/Src/stm32f1xx_hal_msp.c **** 
 377:Core/Src/stm32f1xx_hal_msp.c **** /**
 378:Core/Src/stm32f1xx_hal_msp.c **** * @brief USART MSP De-Initialization
 379:Core/Src/stm32f1xx_hal_msp.c **** * This function freeze the hardware resources used in this example
 380:Core/Src/stm32f1xx_hal_msp.c **** * @param husart: USART handle pointer
 381:Core/Src/stm32f1xx_hal_msp.c **** * @retval None
 382:Core/Src/stm32f1xx_hal_msp.c **** */
 383:Core/Src/stm32f1xx_hal_msp.c **** void HAL_USART_MspDeInit(USART_HandleTypeDef* husart)
 384:Core/Src/stm32f1xx_hal_msp.c **** {
 865              		.loc 1 384 1 is_stmt 1 view -0
 866              		.cfi_startproc
 867              		@ args = 0, pretend = 0, frame = 0
 868              		@ frame_needed = 0, uses_anonymous_args = 0
 869              		.loc 1 384 1 is_stmt 0 view .LVU230
 870 0000 08B5     		push	{r3, lr}
 871              		.cfi_def_cfa_offset 8
 872              		.cfi_offset 3, -8
 873              		.cfi_offset 14, -4
 385:Core/Src/stm32f1xx_hal_msp.c ****   if(husart->Instance==USART3)
 874              		.loc 1 385 3 is_stmt 1 view .LVU231
 875              		.loc 1 385 12 is_stmt 0 view .LVU232
 876 0002 0268     		ldr	r2, [r0]
 877              		.loc 1 385 5 view .LVU233
 878 0004 074B     		ldr	r3, .L58
 879 0006 9A42     		cmp	r2, r3
 880 0008 00D0     		beq	.L57
 881              	.LVL53:
 882              	.L54:
 386:Core/Src/stm32f1xx_hal_msp.c ****   {
 387:Core/Src/stm32f1xx_hal_msp.c ****   /* USER CODE BEGIN USART3_MspDeInit 0 */
 388:Core/Src/stm32f1xx_hal_msp.c **** 
 389:Core/Src/stm32f1xx_hal_msp.c ****   /* USER CODE END USART3_MspDeInit 0 */
 390:Core/Src/stm32f1xx_hal_msp.c ****     /* Peripheral clock disable */
 391:Core/Src/stm32f1xx_hal_msp.c ****     __HAL_RCC_USART3_CLK_DISABLE();
 392:Core/Src/stm32f1xx_hal_msp.c **** 
 393:Core/Src/stm32f1xx_hal_msp.c ****     /**USART3 GPIO Configuration
 394:Core/Src/stm32f1xx_hal_msp.c ****     PB10     ------> USART3_TX
 395:Core/Src/stm32f1xx_hal_msp.c ****     PB11     ------> USART3_RX
 396:Core/Src/stm32f1xx_hal_msp.c ****     PB12     ------> USART3_CK
 397:Core/Src/stm32f1xx_hal_msp.c ****     */
 398:Core/Src/stm32f1xx_hal_msp.c ****     HAL_GPIO_DeInit(GPIOB, GPIO_PIN_10|GPIO_PIN_11|GPIO_PIN_12);
 399:Core/Src/stm32f1xx_hal_msp.c **** 
 400:Core/Src/stm32f1xx_hal_msp.c ****   /* USER CODE BEGIN USART3_MspDeInit 1 */
 401:Core/Src/stm32f1xx_hal_msp.c **** 
 402:Core/Src/stm32f1xx_hal_msp.c ****   /* USER CODE END USART3_MspDeInit 1 */
 403:Core/Src/stm32f1xx_hal_msp.c ****   }
 404:Core/Src/stm32f1xx_hal_msp.c **** 
 405:Core/Src/stm32f1xx_hal_msp.c **** }
 883              		.loc 1 405 1 view .LVU234
 884 000a 08BD     		pop	{r3, pc}
 885              	.LVL54:
 886              	.L57:
 391:Core/Src/stm32f1xx_hal_msp.c **** 
 887              		.loc 1 391 5 is_stmt 1 view .LVU235
 888 000c 064A     		ldr	r2, .L58+4
 889 000e D369     		ldr	r3, [r2, #28]
 890 0010 23F48023 		bic	r3, r3, #262144
ARM GAS  C:\Users\timol\AppData\Local\Temp\ccGLJLqC.s 			page 26


 891 0014 D361     		str	r3, [r2, #28]
 398:Core/Src/stm32f1xx_hal_msp.c **** 
 892              		.loc 1 398 5 view .LVU236
 893 0016 4FF4E051 		mov	r1, #7168
 894 001a 0448     		ldr	r0, .L58+8
 895              	.LVL55:
 398:Core/Src/stm32f1xx_hal_msp.c **** 
 896              		.loc 1 398 5 is_stmt 0 view .LVU237
 897 001c FFF7FEFF 		bl	HAL_GPIO_DeInit
 898              	.LVL56:
 899              		.loc 1 405 1 view .LVU238
 900 0020 F3E7     		b	.L54
 901              	.L59:
 902 0022 00BF     		.align	2
 903              	.L58:
 904 0024 00480040 		.word	1073760256
 905 0028 00100240 		.word	1073876992
 906 002c 000C0140 		.word	1073810432
 907              		.cfi_endproc
 908              	.LFE73:
 910              		.text
 911              	.Letext0:
 912              		.file 2 "c:\\users\\timol\\appdata\\roaming\\code\\user\\globalstorage\\bmd.stm32-for-vscode\\@xpa
 913              		.file 3 "c:\\users\\timol\\appdata\\roaming\\code\\user\\globalstorage\\bmd.stm32-for-vscode\\@xpa
 914              		.file 4 "Drivers/CMSIS/Device/ST/STM32F1xx/Include/stm32f103xb.h"
 915              		.file 5 "Drivers/STM32F1xx_HAL_Driver/Inc/stm32f1xx_hal_def.h"
 916              		.file 6 "Drivers/STM32F1xx_HAL_Driver/Inc/stm32f1xx_hal_gpio.h"
 917              		.file 7 "Drivers/STM32F1xx_HAL_Driver/Inc/stm32f1xx_hal_dma.h"
 918              		.file 8 "Drivers/STM32F1xx_HAL_Driver/Inc/stm32f1xx_hal_i2c.h"
 919              		.file 9 "Drivers/STM32F1xx_HAL_Driver/Inc/stm32f1xx_hal_spi.h"
 920              		.file 10 "Drivers/STM32F1xx_HAL_Driver/Inc/stm32f1xx_hal_uart.h"
 921              		.file 11 "Drivers/STM32F1xx_HAL_Driver/Inc/stm32f1xx_hal_usart.h"
ARM GAS  C:\Users\timol\AppData\Local\Temp\ccGLJLqC.s 			page 27

