ARM GAS  C:\Users\timol\AppData\Local\Temp\ccz8bw2v.s 			page 1


   1              		.cpu arm7tdmi
   2              		.arch armv4t
   3              		.fpu softvfp
   4              		.eabi_attribute 20, 1
   5              		.eabi_attribute 21, 1
   6              		.eabi_attribute 23, 3
   7              		.eabi_attribute 24, 1
   8              		.eabi_attribute 25, 1
   9              		.eabi_attribute 26, 1
  10              		.eabi_attribute 30, 1
  11              		.eabi_attribute 34, 0
  12              		.eabi_attribute 18, 4
  13              		.file	"syscalls.c"
  14              		.text
  15              	.Ltext0:
  16              		.cfi_sections	.debug_frame
  17              		.section	.text.initialise_monitor_handles,"ax",%progbits
  18              		.align	1
  19              		.global	initialise_monitor_handles
  20              		.syntax unified
  21              		.code	16
  22              		.thumb_func
  24              	initialise_monitor_handles:
  25              	.LFB25:
  26              		.file 1 "Core/Src/syscalls.c"
   1:Core/Src/syscalls.c **** /**
   2:Core/Src/syscalls.c ****  ******************************************************************************
   3:Core/Src/syscalls.c ****  * @file      syscalls.c
   4:Core/Src/syscalls.c ****  * @author    Auto-generated by STM32CubeIDE
   5:Core/Src/syscalls.c ****  * @brief     STM32CubeIDE Minimal System calls file
   6:Core/Src/syscalls.c ****  *
   7:Core/Src/syscalls.c ****  *            For more information about which c-functions
   8:Core/Src/syscalls.c ****  *            need which of these lowlevel functions
   9:Core/Src/syscalls.c ****  *            please consult the Newlib libc-manual
  10:Core/Src/syscalls.c ****  ******************************************************************************
  11:Core/Src/syscalls.c ****  * @attention
  12:Core/Src/syscalls.c ****  *
  13:Core/Src/syscalls.c ****  * <h2><center>&copy; Copyright (c) 2020 STMicroelectronics.
  14:Core/Src/syscalls.c ****  * All rights reserved.</center></h2>
  15:Core/Src/syscalls.c ****  *
  16:Core/Src/syscalls.c ****  * This software component is licensed by ST under BSD 3-Clause license,
  17:Core/Src/syscalls.c ****  * the "License"; You may not use this file except in compliance with the
  18:Core/Src/syscalls.c ****  * License. You may obtain a copy of the License at:
  19:Core/Src/syscalls.c ****  *                        opensource.org/licenses/BSD-3-Clause
  20:Core/Src/syscalls.c ****  *
  21:Core/Src/syscalls.c ****  ******************************************************************************
  22:Core/Src/syscalls.c ****  */
  23:Core/Src/syscalls.c **** 
  24:Core/Src/syscalls.c **** /* Includes */
  25:Core/Src/syscalls.c **** #include <sys/stat.h>
  26:Core/Src/syscalls.c **** #include <stdlib.h>
  27:Core/Src/syscalls.c **** #include <errno.h>
  28:Core/Src/syscalls.c **** #include <stdio.h>
  29:Core/Src/syscalls.c **** #include <signal.h>
  30:Core/Src/syscalls.c **** #include <time.h>
  31:Core/Src/syscalls.c **** #include <sys/time.h>
  32:Core/Src/syscalls.c **** #include <sys/times.h>
ARM GAS  C:\Users\timol\AppData\Local\Temp\ccz8bw2v.s 			page 2


  33:Core/Src/syscalls.c **** 
  34:Core/Src/syscalls.c **** 
  35:Core/Src/syscalls.c **** /* Variables */
  36:Core/Src/syscalls.c **** extern int __io_putchar(int ch) __attribute__((weak));
  37:Core/Src/syscalls.c **** extern int __io_getchar(void) __attribute__((weak));
  38:Core/Src/syscalls.c **** 
  39:Core/Src/syscalls.c **** 
  40:Core/Src/syscalls.c **** char *__env[1] = { 0 };
  41:Core/Src/syscalls.c **** char **environ = __env;
  42:Core/Src/syscalls.c **** 
  43:Core/Src/syscalls.c **** 
  44:Core/Src/syscalls.c **** /* Functions */
  45:Core/Src/syscalls.c **** void initialise_monitor_handles()
  46:Core/Src/syscalls.c **** {
  27              		.loc 1 46 1 view -0
  28              		.cfi_startproc
  29              		@ Function supports interworking.
  30              		@ args = 0, pretend = 0, frame = 0
  31              		@ frame_needed = 0, uses_anonymous_args = 0
  32              		@ link register save eliminated.
  47:Core/Src/syscalls.c **** }
  33              		.loc 1 47 1 view .LVU1
  34              		@ sp needed
  35 0000 7047     		bx	lr
  36              		.cfi_endproc
  37              	.LFE25:
  39              		.section	.text._getpid,"ax",%progbits
  40              		.align	1
  41              		.global	_getpid
  42              		.syntax unified
  43              		.code	16
  44              		.thumb_func
  46              	_getpid:
  47              	.LFB26:
  48:Core/Src/syscalls.c **** 
  49:Core/Src/syscalls.c **** int _getpid(void)
  50:Core/Src/syscalls.c **** {
  48              		.loc 1 50 1 view -0
  49              		.cfi_startproc
  50              		@ Function supports interworking.
  51              		@ args = 0, pretend = 0, frame = 0
  52              		@ frame_needed = 0, uses_anonymous_args = 0
  53              		@ link register save eliminated.
  51:Core/Src/syscalls.c **** 	return 1;
  54              		.loc 1 51 2 view .LVU3
  52:Core/Src/syscalls.c **** }
  55              		.loc 1 52 1 is_stmt 0 view .LVU4
  56 0000 0120     		movs	r0, #1
  57              		@ sp needed
  58 0002 7047     		bx	lr
  59              		.cfi_endproc
  60              	.LFE26:
  62              		.section	.text._kill,"ax",%progbits
  63              		.align	1
  64              		.global	_kill
  65              		.syntax unified
  66              		.code	16
ARM GAS  C:\Users\timol\AppData\Local\Temp\ccz8bw2v.s 			page 3


  67              		.thumb_func
  69              	_kill:
  70              	.LVL0:
  71              	.LFB27:
  53:Core/Src/syscalls.c **** 
  54:Core/Src/syscalls.c **** int _kill(int pid, int sig)
  55:Core/Src/syscalls.c **** {
  72              		.loc 1 55 1 is_stmt 1 view -0
  73              		.cfi_startproc
  74              		@ Function supports interworking.
  75              		@ args = 0, pretend = 0, frame = 0
  76              		@ frame_needed = 0, uses_anonymous_args = 0
  77              		.loc 1 55 1 is_stmt 0 view .LVU6
  78 0000 10B5     		push	{r4, lr}
  79              		.cfi_def_cfa_offset 8
  80              		.cfi_offset 4, -8
  81              		.cfi_offset 14, -4
  56:Core/Src/syscalls.c **** 	errno = EINVAL;
  82              		.loc 1 56 2 is_stmt 1 view .LVU7
  83 0002 FFF7FEFF 		bl	__errno
  84              	.LVL1:
  85              		.loc 1 56 8 is_stmt 0 view .LVU8
  86 0006 1623     		movs	r3, #22
  87 0008 0360     		str	r3, [r0]
  57:Core/Src/syscalls.c **** 	return -1;
  88              		.loc 1 57 2 is_stmt 1 view .LVU9
  89              		.loc 1 57 9 is_stmt 0 view .LVU10
  90 000a 0120     		movs	r0, #1
  58:Core/Src/syscalls.c **** }
  91              		.loc 1 58 1 view .LVU11
  92 000c 4042     		rsbs	r0, r0, #0
  93              		@ sp needed
  94 000e 10BC     		pop	{r4}
  95 0010 02BC     		pop	{r1}
  96 0012 0847     		bx	r1
  97              		.cfi_endproc
  98              	.LFE27:
 100              		.section	.text._exit,"ax",%progbits
 101              		.align	1
 102              		.global	_exit
 103              		.syntax unified
 104              		.code	16
 105              		.thumb_func
 107              	_exit:
 108              	.LVL2:
 109              	.LFB28:
  59:Core/Src/syscalls.c **** 
  60:Core/Src/syscalls.c **** void _exit (int status)
  61:Core/Src/syscalls.c **** {
 110              		.loc 1 61 1 is_stmt 1 view -0
 111              		.cfi_startproc
 112              		@ Function supports interworking.
 113              		@ Volatile: function does not return.
 114              		@ args = 0, pretend = 0, frame = 0
 115              		@ frame_needed = 0, uses_anonymous_args = 0
 116              		.loc 1 61 1 is_stmt 0 view .LVU13
 117 0000 10B5     		push	{r4, lr}
ARM GAS  C:\Users\timol\AppData\Local\Temp\ccz8bw2v.s 			page 4


 118              		.cfi_def_cfa_offset 8
 119              		.cfi_offset 4, -8
 120              		.cfi_offset 14, -4
  62:Core/Src/syscalls.c **** 	_kill(status, -1);
 121              		.loc 1 62 2 is_stmt 1 view .LVU14
 122 0002 0121     		movs	r1, #1
 123 0004 4942     		rsbs	r1, r1, #0
 124 0006 FFF7FEFF 		bl	_kill
 125              	.LVL3:
 126              	.L5:
  63:Core/Src/syscalls.c **** 	while (1) {}		/* Make sure we hang here */
 127              		.loc 1 63 2 discriminator 1 view .LVU15
 128              		.loc 1 63 13 discriminator 1 view .LVU16
 129              		.loc 1 63 8 discriminator 1 view .LVU17
 130 000a FEE7     		b	.L5
 131              		.cfi_endproc
 132              	.LFE28:
 134              		.section	.text._read,"ax",%progbits
 135              		.align	1
 136              		.weak	_read
 137              		.syntax unified
 138              		.code	16
 139              		.thumb_func
 141              	_read:
 142              	.LVL4:
 143              	.LFB29:
  64:Core/Src/syscalls.c **** }
  65:Core/Src/syscalls.c **** 
  66:Core/Src/syscalls.c **** __attribute__((weak)) int _read(int file, char *ptr, int len)
  67:Core/Src/syscalls.c **** {
 144              		.loc 1 67 1 view -0
 145              		.cfi_startproc
 146              		@ Function supports interworking.
 147              		@ args = 0, pretend = 0, frame = 0
 148              		@ frame_needed = 0, uses_anonymous_args = 0
 149              		.loc 1 67 1 is_stmt 0 view .LVU19
 150 0000 70B5     		push	{r4, r5, r6, lr}
 151              		.cfi_def_cfa_offset 16
 152              		.cfi_offset 4, -16
 153              		.cfi_offset 5, -12
 154              		.cfi_offset 6, -8
 155              		.cfi_offset 14, -4
 156 0002 0C00     		movs	r4, r1
 157 0004 1600     		movs	r6, r2
  68:Core/Src/syscalls.c **** 	int DataIdx;
 158              		.loc 1 68 2 is_stmt 1 view .LVU20
  69:Core/Src/syscalls.c **** 
  70:Core/Src/syscalls.c **** 	for (DataIdx = 0; DataIdx < len; DataIdx++)
 159              		.loc 1 70 2 view .LVU21
 160              	.LVL5:
 161              		.loc 1 70 15 is_stmt 0 view .LVU22
 162 0006 0025     		movs	r5, #0
 163              		.loc 1 70 2 view .LVU23
 164 0008 04E0     		b	.L7
 165              	.LVL6:
 166              	.L8:
  71:Core/Src/syscalls.c **** 	{
ARM GAS  C:\Users\timol\AppData\Local\Temp\ccz8bw2v.s 			page 5


  72:Core/Src/syscalls.c **** 		*ptr++ = __io_getchar();
 167              		.loc 1 72 3 is_stmt 1 discriminator 3 view .LVU24
 168              		.loc 1 72 12 is_stmt 0 discriminator 3 view .LVU25
 169 000a FFF7FEFF 		bl	__io_getchar
 170              	.LVL7:
 171              		.loc 1 72 10 discriminator 3 view .LVU26
 172 000e 2070     		strb	r0, [r4]
  70:Core/Src/syscalls.c **** 	{
 173              		.loc 1 70 42 is_stmt 1 discriminator 3 view .LVU27
 174 0010 0135     		adds	r5, r5, #1
 175              	.LVL8:
 176              		.loc 1 72 7 is_stmt 0 discriminator 3 view .LVU28
 177 0012 0134     		adds	r4, r4, #1
 178              	.LVL9:
 179              	.L7:
  70:Core/Src/syscalls.c **** 	{
 180              		.loc 1 70 28 is_stmt 1 discriminator 1 view .LVU29
 181 0014 B542     		cmp	r5, r6
 182 0016 F8DB     		blt	.L8
  73:Core/Src/syscalls.c **** 	}
  74:Core/Src/syscalls.c **** 
  75:Core/Src/syscalls.c **** return len;
 183              		.loc 1 75 1 view .LVU30
  76:Core/Src/syscalls.c **** }
 184              		.loc 1 76 1 is_stmt 0 view .LVU31
 185 0018 3000     		movs	r0, r6
 186              		@ sp needed
 187              	.LVL10:
 188              	.LVL11:
 189              	.LVL12:
 190              		.loc 1 76 1 view .LVU32
 191 001a 70BC     		pop	{r4, r5, r6}
 192 001c 02BC     		pop	{r1}
 193 001e 0847     		bx	r1
 194              		.cfi_endproc
 195              	.LFE29:
 197              		.section	.text._write,"ax",%progbits
 198              		.align	1
 199              		.weak	_write
 200              		.syntax unified
 201              		.code	16
 202              		.thumb_func
 204              	_write:
 205              	.LVL13:
 206              	.LFB30:
  77:Core/Src/syscalls.c **** 
  78:Core/Src/syscalls.c **** __attribute__((weak)) int _write(int file, char *ptr, int len)
  79:Core/Src/syscalls.c **** {
 207              		.loc 1 79 1 is_stmt 1 view -0
 208              		.cfi_startproc
 209              		@ Function supports interworking.
 210              		@ args = 0, pretend = 0, frame = 0
 211              		@ frame_needed = 0, uses_anonymous_args = 0
 212              		.loc 1 79 1 is_stmt 0 view .LVU34
 213 0000 70B5     		push	{r4, r5, r6, lr}
 214              		.cfi_def_cfa_offset 16
 215              		.cfi_offset 4, -16
ARM GAS  C:\Users\timol\AppData\Local\Temp\ccz8bw2v.s 			page 6


 216              		.cfi_offset 5, -12
 217              		.cfi_offset 6, -8
 218              		.cfi_offset 14, -4
 219 0002 1600     		movs	r6, r2
  80:Core/Src/syscalls.c **** 	int DataIdx;
 220              		.loc 1 80 2 is_stmt 1 view .LVU35
  81:Core/Src/syscalls.c **** 
  82:Core/Src/syscalls.c **** 	for (DataIdx = 0; DataIdx < len; DataIdx++)
 221              		.loc 1 82 2 view .LVU36
 222              	.LVL14:
 223              		.loc 1 82 15 is_stmt 0 view .LVU37
 224 0004 0024     		movs	r4, #0
 225              		.loc 1 82 2 view .LVU38
 226 0006 05E0     		b	.L10
 227              	.LVL15:
 228              	.L11:
  83:Core/Src/syscalls.c **** 	{
  84:Core/Src/syscalls.c **** 		__io_putchar(*ptr++);
 229              		.loc 1 84 3 is_stmt 1 discriminator 3 view .LVU39
 230              		.loc 1 84 20 is_stmt 0 discriminator 3 view .LVU40
 231 0008 4D1C     		adds	r5, r1, #1
 232              	.LVL16:
 233              		.loc 1 84 16 discriminator 3 view .LVU41
 234 000a 0878     		ldrb	r0, [r1]
 235              		.loc 1 84 3 discriminator 3 view .LVU42
 236 000c FFF7FEFF 		bl	__io_putchar
 237              	.LVL17:
  82:Core/Src/syscalls.c **** 	{
 238              		.loc 1 82 42 is_stmt 1 discriminator 3 view .LVU43
 239 0010 0134     		adds	r4, r4, #1
 240              	.LVL18:
 241              		.loc 1 84 20 is_stmt 0 discriminator 3 view .LVU44
 242 0012 2900     		movs	r1, r5
 243              	.LVL19:
 244              	.L10:
  82:Core/Src/syscalls.c **** 	{
 245              		.loc 1 82 28 is_stmt 1 discriminator 1 view .LVU45
 246 0014 B442     		cmp	r4, r6
 247 0016 F7DB     		blt	.L11
  85:Core/Src/syscalls.c **** 	}
  86:Core/Src/syscalls.c **** 	return len;
 248              		.loc 1 86 2 view .LVU46
  87:Core/Src/syscalls.c **** }
 249              		.loc 1 87 1 is_stmt 0 view .LVU47
 250 0018 3000     		movs	r0, r6
 251              		@ sp needed
 252              	.LVL20:
 253              	.LVL21:
 254              		.loc 1 87 1 view .LVU48
 255 001a 70BC     		pop	{r4, r5, r6}
 256 001c 02BC     		pop	{r1}
 257 001e 0847     		bx	r1
 258              		.cfi_endproc
 259              	.LFE30:
 261              		.section	.text._close,"ax",%progbits
 262              		.align	1
 263              		.global	_close
ARM GAS  C:\Users\timol\AppData\Local\Temp\ccz8bw2v.s 			page 7


 264              		.syntax unified
 265              		.code	16
 266              		.thumb_func
 268              	_close:
 269              	.LVL22:
 270              	.LFB31:
  88:Core/Src/syscalls.c **** 
  89:Core/Src/syscalls.c **** int _close(int file)
  90:Core/Src/syscalls.c **** {
 271              		.loc 1 90 1 is_stmt 1 view -0
 272              		.cfi_startproc
 273              		@ Function supports interworking.
 274              		@ args = 0, pretend = 0, frame = 0
 275              		@ frame_needed = 0, uses_anonymous_args = 0
 276              		@ link register save eliminated.
  91:Core/Src/syscalls.c **** 	return -1;
 277              		.loc 1 91 2 view .LVU50
 278              		.loc 1 91 9 is_stmt 0 view .LVU51
 279 0000 0120     		movs	r0, #1
 280              	.LVL23:
  92:Core/Src/syscalls.c **** }
 281              		.loc 1 92 1 view .LVU52
 282 0002 4042     		rsbs	r0, r0, #0
 283              		@ sp needed
 284 0004 7047     		bx	lr
 285              		.cfi_endproc
 286              	.LFE31:
 288              		.section	.text._fstat,"ax",%progbits
 289              		.align	1
 290              		.global	_fstat
 291              		.syntax unified
 292              		.code	16
 293              		.thumb_func
 295              	_fstat:
 296              	.LVL24:
 297              	.LFB32:
  93:Core/Src/syscalls.c **** 
  94:Core/Src/syscalls.c **** 
  95:Core/Src/syscalls.c **** int _fstat(int file, struct stat *st)
  96:Core/Src/syscalls.c **** {
 298              		.loc 1 96 1 is_stmt 1 view -0
 299              		.cfi_startproc
 300              		@ Function supports interworking.
 301              		@ args = 0, pretend = 0, frame = 0
 302              		@ frame_needed = 0, uses_anonymous_args = 0
 303              		@ link register save eliminated.
  97:Core/Src/syscalls.c **** 	st->st_mode = S_IFCHR;
 304              		.loc 1 97 2 view .LVU54
 305              		.loc 1 97 14 is_stmt 0 view .LVU55
 306 0000 8023     		movs	r3, #128
 307 0002 9B01     		lsls	r3, r3, #6
 308 0004 4B60     		str	r3, [r1, #4]
  98:Core/Src/syscalls.c **** 	return 0;
 309              		.loc 1 98 2 is_stmt 1 view .LVU56
  99:Core/Src/syscalls.c **** }
 310              		.loc 1 99 1 is_stmt 0 view .LVU57
 311 0006 0020     		movs	r0, #0
ARM GAS  C:\Users\timol\AppData\Local\Temp\ccz8bw2v.s 			page 8


 312              	.LVL25:
 313              		.loc 1 99 1 view .LVU58
 314              		@ sp needed
 315 0008 7047     		bx	lr
 316              		.cfi_endproc
 317              	.LFE32:
 319              		.section	.text._isatty,"ax",%progbits
 320              		.align	1
 321              		.global	_isatty
 322              		.syntax unified
 323              		.code	16
 324              		.thumb_func
 326              	_isatty:
 327              	.LVL26:
 328              	.LFB33:
 100:Core/Src/syscalls.c **** 
 101:Core/Src/syscalls.c **** int _isatty(int file)
 102:Core/Src/syscalls.c **** {
 329              		.loc 1 102 1 is_stmt 1 view -0
 330              		.cfi_startproc
 331              		@ Function supports interworking.
 332              		@ args = 0, pretend = 0, frame = 0
 333              		@ frame_needed = 0, uses_anonymous_args = 0
 334              		@ link register save eliminated.
 103:Core/Src/syscalls.c **** 	return 1;
 335              		.loc 1 103 2 view .LVU60
 104:Core/Src/syscalls.c **** }
 336              		.loc 1 104 1 is_stmt 0 view .LVU61
 337 0000 0120     		movs	r0, #1
 338              	.LVL27:
 339              		.loc 1 104 1 view .LVU62
 340              		@ sp needed
 341 0002 7047     		bx	lr
 342              		.cfi_endproc
 343              	.LFE33:
 345              		.section	.text._lseek,"ax",%progbits
 346              		.align	1
 347              		.global	_lseek
 348              		.syntax unified
 349              		.code	16
 350              		.thumb_func
 352              	_lseek:
 353              	.LVL28:
 354              	.LFB34:
 105:Core/Src/syscalls.c **** 
 106:Core/Src/syscalls.c **** int _lseek(int file, int ptr, int dir)
 107:Core/Src/syscalls.c **** {
 355              		.loc 1 107 1 is_stmt 1 view -0
 356              		.cfi_startproc
 357              		@ Function supports interworking.
 358              		@ args = 0, pretend = 0, frame = 0
 359              		@ frame_needed = 0, uses_anonymous_args = 0
 360              		@ link register save eliminated.
 108:Core/Src/syscalls.c **** 	return 0;
 361              		.loc 1 108 2 view .LVU64
 109:Core/Src/syscalls.c **** }
 362              		.loc 1 109 1 is_stmt 0 view .LVU65
ARM GAS  C:\Users\timol\AppData\Local\Temp\ccz8bw2v.s 			page 9


 363 0000 0020     		movs	r0, #0
 364              	.LVL29:
 365              		.loc 1 109 1 view .LVU66
 366              		@ sp needed
 367 0002 7047     		bx	lr
 368              		.cfi_endproc
 369              	.LFE34:
 371              		.section	.text._open,"ax",%progbits
 372              		.align	1
 373              		.global	_open
 374              		.syntax unified
 375              		.code	16
 376              		.thumb_func
 378              	_open:
 379              	.LVL30:
 380              	.LFB35:
 110:Core/Src/syscalls.c **** 
 111:Core/Src/syscalls.c **** int _open(char *path, int flags, ...)
 112:Core/Src/syscalls.c **** {
 381              		.loc 1 112 1 is_stmt 1 view -0
 382              		.cfi_startproc
 383              		@ Function supports interworking.
 384              		@ args = 4, pretend = 12, frame = 0
 385              		@ frame_needed = 0, uses_anonymous_args = 1
 386              		@ link register save eliminated.
 387              		.loc 1 112 1 is_stmt 0 view .LVU68
 388 0000 0EB4     		push	{r1, r2, r3}
 389              		.cfi_def_cfa_offset 12
 113:Core/Src/syscalls.c **** 	/* Pretend like we always fail */
 114:Core/Src/syscalls.c **** 	return -1;
 390              		.loc 1 114 2 is_stmt 1 view .LVU69
 391              		.loc 1 114 9 is_stmt 0 view .LVU70
 392 0002 0120     		movs	r0, #1
 393              	.LVL31:
 115:Core/Src/syscalls.c **** }
 394              		.loc 1 115 1 view .LVU71
 395 0004 4042     		rsbs	r0, r0, #0
 396              		@ sp needed
 397 0006 03B0     		add	sp, sp, #12
 398 0008 7047     		bx	lr
 399              		.cfi_endproc
 400              	.LFE35:
 402              		.section	.text._wait,"ax",%progbits
 403              		.align	1
 404              		.global	_wait
 405              		.syntax unified
 406              		.code	16
 407              		.thumb_func
 409              	_wait:
 410              	.LVL32:
 411              	.LFB36:
 116:Core/Src/syscalls.c **** 
 117:Core/Src/syscalls.c **** int _wait(int *status)
 118:Core/Src/syscalls.c **** {
 412              		.loc 1 118 1 is_stmt 1 view -0
 413              		.cfi_startproc
 414              		@ Function supports interworking.
ARM GAS  C:\Users\timol\AppData\Local\Temp\ccz8bw2v.s 			page 10


 415              		@ args = 0, pretend = 0, frame = 0
 416              		@ frame_needed = 0, uses_anonymous_args = 0
 417              		.loc 1 118 1 is_stmt 0 view .LVU73
 418 0000 10B5     		push	{r4, lr}
 419              		.cfi_def_cfa_offset 8
 420              		.cfi_offset 4, -8
 421              		.cfi_offset 14, -4
 119:Core/Src/syscalls.c **** 	errno = ECHILD;
 422              		.loc 1 119 2 is_stmt 1 view .LVU74
 423 0002 FFF7FEFF 		bl	__errno
 424              	.LVL33:
 425              		.loc 1 119 8 is_stmt 0 view .LVU75
 426 0006 0A23     		movs	r3, #10
 427 0008 0360     		str	r3, [r0]
 120:Core/Src/syscalls.c **** 	return -1;
 428              		.loc 1 120 2 is_stmt 1 view .LVU76
 429              		.loc 1 120 9 is_stmt 0 view .LVU77
 430 000a 0120     		movs	r0, #1
 121:Core/Src/syscalls.c **** }
 431              		.loc 1 121 1 view .LVU78
 432 000c 4042     		rsbs	r0, r0, #0
 433              		@ sp needed
 434 000e 10BC     		pop	{r4}
 435 0010 02BC     		pop	{r1}
 436 0012 0847     		bx	r1
 437              		.cfi_endproc
 438              	.LFE36:
 440              		.section	.text._unlink,"ax",%progbits
 441              		.align	1
 442              		.global	_unlink
 443              		.syntax unified
 444              		.code	16
 445              		.thumb_func
 447              	_unlink:
 448              	.LVL34:
 449              	.LFB37:
 122:Core/Src/syscalls.c **** 
 123:Core/Src/syscalls.c **** int _unlink(char *name)
 124:Core/Src/syscalls.c **** {
 450              		.loc 1 124 1 is_stmt 1 view -0
 451              		.cfi_startproc
 452              		@ Function supports interworking.
 453              		@ args = 0, pretend = 0, frame = 0
 454              		@ frame_needed = 0, uses_anonymous_args = 0
 455              		.loc 1 124 1 is_stmt 0 view .LVU80
 456 0000 10B5     		push	{r4, lr}
 457              		.cfi_def_cfa_offset 8
 458              		.cfi_offset 4, -8
 459              		.cfi_offset 14, -4
 125:Core/Src/syscalls.c **** 	errno = ENOENT;
 460              		.loc 1 125 2 is_stmt 1 view .LVU81
 461 0002 FFF7FEFF 		bl	__errno
 462              	.LVL35:
 463              		.loc 1 125 8 is_stmt 0 view .LVU82
 464 0006 0223     		movs	r3, #2
 465 0008 0360     		str	r3, [r0]
 126:Core/Src/syscalls.c **** 	return -1;
ARM GAS  C:\Users\timol\AppData\Local\Temp\ccz8bw2v.s 			page 11


 466              		.loc 1 126 2 is_stmt 1 view .LVU83
 467              		.loc 1 126 9 is_stmt 0 view .LVU84
 468 000a 0120     		movs	r0, #1
 127:Core/Src/syscalls.c **** }
 469              		.loc 1 127 1 view .LVU85
 470 000c 4042     		rsbs	r0, r0, #0
 471              		@ sp needed
 472 000e 10BC     		pop	{r4}
 473 0010 02BC     		pop	{r1}
 474 0012 0847     		bx	r1
 475              		.cfi_endproc
 476              	.LFE37:
 478              		.section	.text._times,"ax",%progbits
 479              		.align	1
 480              		.global	_times
 481              		.syntax unified
 482              		.code	16
 483              		.thumb_func
 485              	_times:
 486              	.LVL36:
 487              	.LFB38:
 128:Core/Src/syscalls.c **** 
 129:Core/Src/syscalls.c **** int _times(struct tms *buf)
 130:Core/Src/syscalls.c **** {
 488              		.loc 1 130 1 is_stmt 1 view -0
 489              		.cfi_startproc
 490              		@ Function supports interworking.
 491              		@ args = 0, pretend = 0, frame = 0
 492              		@ frame_needed = 0, uses_anonymous_args = 0
 493              		@ link register save eliminated.
 131:Core/Src/syscalls.c **** 	return -1;
 494              		.loc 1 131 2 view .LVU87
 495              		.loc 1 131 9 is_stmt 0 view .LVU88
 496 0000 0120     		movs	r0, #1
 497              	.LVL37:
 132:Core/Src/syscalls.c **** }
 498              		.loc 1 132 1 view .LVU89
 499 0002 4042     		rsbs	r0, r0, #0
 500              		@ sp needed
 501 0004 7047     		bx	lr
 502              		.cfi_endproc
 503              	.LFE38:
 505              		.section	.text._stat,"ax",%progbits
 506              		.align	1
 507              		.global	_stat
 508              		.syntax unified
 509              		.code	16
 510              		.thumb_func
 512              	_stat:
 513              	.LVL38:
 514              	.LFB39:
 133:Core/Src/syscalls.c **** 
 134:Core/Src/syscalls.c **** int _stat(char *file, struct stat *st)
 135:Core/Src/syscalls.c **** {
 515              		.loc 1 135 1 is_stmt 1 view -0
 516              		.cfi_startproc
 517              		@ Function supports interworking.
ARM GAS  C:\Users\timol\AppData\Local\Temp\ccz8bw2v.s 			page 12


 518              		@ args = 0, pretend = 0, frame = 0
 519              		@ frame_needed = 0, uses_anonymous_args = 0
 520              		@ link register save eliminated.
 136:Core/Src/syscalls.c **** 	st->st_mode = S_IFCHR;
 521              		.loc 1 136 2 view .LVU91
 522              		.loc 1 136 14 is_stmt 0 view .LVU92
 523 0000 8023     		movs	r3, #128
 524 0002 9B01     		lsls	r3, r3, #6
 525 0004 4B60     		str	r3, [r1, #4]
 137:Core/Src/syscalls.c **** 	return 0;
 526              		.loc 1 137 2 is_stmt 1 view .LVU93
 138:Core/Src/syscalls.c **** }
 527              		.loc 1 138 1 is_stmt 0 view .LVU94
 528 0006 0020     		movs	r0, #0
 529              	.LVL39:
 530              		.loc 1 138 1 view .LVU95
 531              		@ sp needed
 532 0008 7047     		bx	lr
 533              		.cfi_endproc
 534              	.LFE39:
 536              		.section	.text._link,"ax",%progbits
 537              		.align	1
 538              		.global	_link
 539              		.syntax unified
 540              		.code	16
 541              		.thumb_func
 543              	_link:
 544              	.LVL40:
 545              	.LFB40:
 139:Core/Src/syscalls.c **** 
 140:Core/Src/syscalls.c **** int _link(char *old, char *new)
 141:Core/Src/syscalls.c **** {
 546              		.loc 1 141 1 is_stmt 1 view -0
 547              		.cfi_startproc
 548              		@ Function supports interworking.
 549              		@ args = 0, pretend = 0, frame = 0
 550              		@ frame_needed = 0, uses_anonymous_args = 0
 551              		.loc 1 141 1 is_stmt 0 view .LVU97
 552 0000 10B5     		push	{r4, lr}
 553              		.cfi_def_cfa_offset 8
 554              		.cfi_offset 4, -8
 555              		.cfi_offset 14, -4
 142:Core/Src/syscalls.c **** 	errno = EMLINK;
 556              		.loc 1 142 2 is_stmt 1 view .LVU98
 557 0002 FFF7FEFF 		bl	__errno
 558              	.LVL41:
 559              		.loc 1 142 8 is_stmt 0 view .LVU99
 560 0006 1F23     		movs	r3, #31
 561 0008 0360     		str	r3, [r0]
 143:Core/Src/syscalls.c **** 	return -1;
 562              		.loc 1 143 2 is_stmt 1 view .LVU100
 563              		.loc 1 143 9 is_stmt 0 view .LVU101
 564 000a 0120     		movs	r0, #1
 144:Core/Src/syscalls.c **** }
 565              		.loc 1 144 1 view .LVU102
 566 000c 4042     		rsbs	r0, r0, #0
 567              		@ sp needed
ARM GAS  C:\Users\timol\AppData\Local\Temp\ccz8bw2v.s 			page 13


 568 000e 10BC     		pop	{r4}
 569 0010 02BC     		pop	{r1}
 570 0012 0847     		bx	r1
 571              		.cfi_endproc
 572              	.LFE40:
 574              		.section	.text._fork,"ax",%progbits
 575              		.align	1
 576              		.global	_fork
 577              		.syntax unified
 578              		.code	16
 579              		.thumb_func
 581              	_fork:
 582              	.LFB41:
 145:Core/Src/syscalls.c **** 
 146:Core/Src/syscalls.c **** int _fork(void)
 147:Core/Src/syscalls.c **** {
 583              		.loc 1 147 1 is_stmt 1 view -0
 584              		.cfi_startproc
 585              		@ Function supports interworking.
 586              		@ args = 0, pretend = 0, frame = 0
 587              		@ frame_needed = 0, uses_anonymous_args = 0
 588 0000 10B5     		push	{r4, lr}
 589              		.cfi_def_cfa_offset 8
 590              		.cfi_offset 4, -8
 591              		.cfi_offset 14, -4
 148:Core/Src/syscalls.c **** 	errno = EAGAIN;
 592              		.loc 1 148 2 view .LVU104
 593 0002 FFF7FEFF 		bl	__errno
 594              	.LVL42:
 595              		.loc 1 148 8 is_stmt 0 view .LVU105
 596 0006 0B23     		movs	r3, #11
 597 0008 0360     		str	r3, [r0]
 149:Core/Src/syscalls.c **** 	return -1;
 598              		.loc 1 149 2 is_stmt 1 view .LVU106
 599              		.loc 1 149 9 is_stmt 0 view .LVU107
 600 000a 0120     		movs	r0, #1
 150:Core/Src/syscalls.c **** }
 601              		.loc 1 150 1 view .LVU108
 602 000c 4042     		rsbs	r0, r0, #0
 603              		@ sp needed
 604 000e 10BC     		pop	{r4}
 605 0010 02BC     		pop	{r1}
 606 0012 0847     		bx	r1
 607              		.cfi_endproc
 608              	.LFE41:
 610              		.section	.text._execve,"ax",%progbits
 611              		.align	1
 612              		.global	_execve
 613              		.syntax unified
 614              		.code	16
 615              		.thumb_func
 617              	_execve:
 618              	.LVL43:
 619              	.LFB42:
 151:Core/Src/syscalls.c **** 
 152:Core/Src/syscalls.c **** int _execve(char *name, char **argv, char **env)
 153:Core/Src/syscalls.c **** {
ARM GAS  C:\Users\timol\AppData\Local\Temp\ccz8bw2v.s 			page 14


 620              		.loc 1 153 1 is_stmt 1 view -0
 621              		.cfi_startproc
 622              		@ Function supports interworking.
 623              		@ args = 0, pretend = 0, frame = 0
 624              		@ frame_needed = 0, uses_anonymous_args = 0
 625              		.loc 1 153 1 is_stmt 0 view .LVU110
 626 0000 10B5     		push	{r4, lr}
 627              		.cfi_def_cfa_offset 8
 628              		.cfi_offset 4, -8
 629              		.cfi_offset 14, -4
 154:Core/Src/syscalls.c **** 	errno = ENOMEM;
 630              		.loc 1 154 2 is_stmt 1 view .LVU111
 631 0002 FFF7FEFF 		bl	__errno
 632              	.LVL44:
 633              		.loc 1 154 8 is_stmt 0 view .LVU112
 634 0006 0C23     		movs	r3, #12
 635 0008 0360     		str	r3, [r0]
 155:Core/Src/syscalls.c **** 	return -1;
 636              		.loc 1 155 2 is_stmt 1 view .LVU113
 637              		.loc 1 155 9 is_stmt 0 view .LVU114
 638 000a 0120     		movs	r0, #1
 156:Core/Src/syscalls.c **** }
 639              		.loc 1 156 1 view .LVU115
 640 000c 4042     		rsbs	r0, r0, #0
 641              		@ sp needed
 642 000e 10BC     		pop	{r4}
 643 0010 02BC     		pop	{r1}
 644 0012 0847     		bx	r1
 645              		.cfi_endproc
 646              	.LFE42:
 648              		.global	environ
 649              		.global	__env
 650              		.section	.bss.__env,"aw",%nobits
 651              		.align	2
 654              	__env:
 655 0000 00000000 		.space	4
 656              		.section	.data.environ,"aw"
 657              		.align	2
 660              	environ:
 661 0000 00000000 		.word	__env
 662              		.weak	__io_putchar
 663              		.weak	__io_getchar
 664              		.text
 665              	.Letext0:
 666              		.file 2 "c:\\users\\timol\\appdata\\roaming\\code\\user\\globalstorage\\bmd.stm32-for-vscode\\@xpa
 667              		.file 3 "c:\\users\\timol\\appdata\\roaming\\code\\user\\globalstorage\\bmd.stm32-for-vscode\\@xpa
 668              		.file 4 "c:\\users\\timol\\appdata\\roaming\\code\\user\\globalstorage\\bmd.stm32-for-vscode\\@xpa
 669              		.file 5 "c:\\users\\timol\\appdata\\roaming\\code\\user\\globalstorage\\bmd.stm32-for-vscode\\@xpa
 670              		.file 6 "c:\\users\\timol\\appdata\\roaming\\code\\user\\globalstorage\\bmd.stm32-for-vscode\\@xpa
 671              		.file 7 "c:\\users\\timol\\appdata\\roaming\\code\\user\\globalstorage\\bmd.stm32-for-vscode\\@xpa
 672              		.file 8 "c:\\users\\timol\\appdata\\roaming\\code\\user\\globalstorage\\bmd.stm32-for-vscode\\@xpa
 673              		.file 9 "c:\\users\\timol\\appdata\\roaming\\code\\user\\globalstorage\\bmd.stm32-for-vscode\\@xpa
ARM GAS  C:\Users\timol\AppData\Local\Temp\ccz8bw2v.s 			page 15

